 qagamex86

 Timestamp is 54b9fe4e (Sat Jan 17 00:16:46 2015)

 Preferred load address is 20000000

 Start         Length     Name                   Class
 0001:00000000 00039a06H .text                   CODE
 0002:00000000 000000e0H .idata$5                DATA
 0002:000000e0 00006ba8H .rdata                  DATA
 0002:00006c90 00000008H .rdata$sxdata           DATA
 0002:00006c98 00000004H .rtc$IAA                DATA
 0002:00006c9c 00000004H .rtc$IZZ                DATA
 0002:00006ca0 00000004H .rtc$TAA                DATA
 0002:00006ca4 00000004H .rtc$TZZ                DATA
 0002:00006ca8 00000014H .idata$2                DATA
 0002:00006cbc 00000014H .idata$3                DATA
 0002:00006cd0 000000e0H .idata$4                DATA
 0002:00006db0 000003e4H .idata$6                DATA
 0002:000071a0 0000005aH .edata                  DATA
 0003:00000000 00000004H .CRT$XCA                DATA
 0003:00000004 00000004H .CRT$XCAA               DATA
 0003:00000008 00000004H .CRT$XCZ                DATA
 0003:0000000c 00000004H .CRT$XIA                DATA
 0003:00000010 00000010H .CRT$XIC                DATA
 0003:00000020 00000004H .CRT$XIZ                DATA
 0003:00000024 00000004H .CRT$XPA                DATA
 0003:00000028 00000004H .CRT$XPX                DATA
 0003:0000002c 00000004H .CRT$XPZ                DATA
 0003:00000030 00000004H .CRT$XTA                DATA
 0003:00000034 00000004H .CRT$XTZ                DATA
 0003:00000040 000026c4H .data                   DATA
 0003:00002720 0014c8a0H .bss                    DATA

  Address         Publics by Value              Rva+Base     Lib:Object

 0000:00000000       __except_list              00000000     <absolute>
 0000:00000002       ___safe_se_handler_count   00000002     <absolute>
 0001:00000000       _BotNumActivePlayers       20001000 f   ai_chat.obj
 0001:000000d0       _BotIsFirstInRankings      200010d0 f   ai_chat.obj
 0001:000001e0       _BotIsLastInRankings       200011e0 f   ai_chat.obj
 0001:000002f0       _BotFirstClientInRankings  200012f0 f   ai_chat.obj
 0001:00000400       _BotLastClientInRankings   20001400 f   ai_chat.obj
 0001:00000510       _BotRandomOpponentName     20001510 f   ai_chat.obj
 0001:00000670       _BotMapTitle               20001670 f   ai_chat.obj
 0001:000006c0       _BotWeaponNameForMeansOfDeath 200016c0 f   ai_chat.obj
 0001:00000760       _BotRandomWeaponName       20001760 f   ai_chat.obj
 0001:000007f0       _BotVisibleEnemies         200017f0 f   ai_chat.obj
 0001:000008c0       _BotValidChatPosition      200018c0 f   ai_chat.obj
 0001:00000a50       _BotChat_EnterGame         20001a50 f   ai_chat.obj
 0001:00000b60       _BotChat_ExitGame          20001b60 f   ai_chat.obj
 0001:00000c60       _BotChat_StartLevel        20001c60 f   ai_chat.obj
 0001:00000d60       _BotChat_EndLevel          20001d60 f   ai_chat.obj
 0001:00000f30       _BotChat_Death             20001f30 f   ai_chat.obj
 0001:000012b0       _BotChat_Kill              200022b0 f   ai_chat.obj
 0001:000014b0       _BotChat_EnemySuicide      200024b0 f   ai_chat.obj
 0001:000015c0       _BotChat_HitTalking        200025c0 f   ai_chat.obj
 0001:00001740       _BotChat_HitNoDeath        20002740 f   ai_chat.obj
 0001:000018f0       _BotChat_HitNoKill         200028f0 f   ai_chat.obj
 0001:00001a60       _BotChat_Random            20002a60 f   ai_chat.obj
 0001:00001cb0       _BotChatTime               20002cb0 f   ai_chat.obj
 0001:00001ce0       _BotGetItemTeamGoal        20002ce0 f   ai_cmd.obj
 0001:00001d40       _BotGetMessageTeamGoal     20002d40 f   ai_cmd.obj
 0001:00001d90       _BotGetTime                20002d90 f   ai_cmd.obj
 0001:00001ea0       _FindClientByName          20002ea0 f   ai_cmd.obj
 0001:00001f50       _FindEnemyByName           20002f50 f   ai_cmd.obj
 0001:00002030       _NumPlayersOnSameTeam      20003030 f   ai_cmd.obj
 0001:000020d0       _BotGetPatrolWaypoints     200030d0 f   ai_cmd.obj
 0001:000022f0       _BotAddressedToBot         200032f0 f   ai_cmd.obj
 0001:00002550       _BotMatch_HelpAccompany    20003550 f   ai_cmd.obj
 0001:000028c0       _BotMatch_DefendKeyArea    200038c0 f   ai_cmd.obj
 0001:000029f0       _BotMatch_GetItem          200039f0 f   ai_cmd.obj
 0001:00002af0       _BotMatch_Camp             20003af0 f   ai_cmd.obj
 0001:00002dc0       _BotMatch_Patrol           20003dc0 f   ai_cmd.obj
 0001:00002ec0       _BotMatch_GetFlag          20003ec0 f   ai_cmd.obj
 0001:00002fc0       _BotMatch_RushBase         20003fc0 f   ai_cmd.obj
 0001:000030b0       _BotMatch_TaskPreference   200040b0 f   ai_cmd.obj
 0001:000031b0       _BotMatch_ReturnFlag       200041b0 f   ai_cmd.obj
 0001:00003280       _BotMatch_JoinSubteam      20004280 f   ai_cmd.obj
 0001:00003330       _BotMatch_LeaveSubteam     20004330 f   ai_cmd.obj
 0001:000033d0       _BotMatch_WhichTeam        200043d0 f   ai_cmd.obj
 0001:00003450       _BotMatch_CheckPoint       20004450 f   ai_cmd.obj
 0001:00003640       _BotMatch_FormationSpace   20004640 f   ai_cmd.obj
 0001:000036f0       _BotMatch_Dismiss          200046f0 f   ai_cmd.obj
 0001:00003790       _BotMatch_Suicide          20004790 f   ai_cmd.obj
 0001:00003810       _BotMatch_StartTeamLeaderShip 20004810 f   ai_cmd.obj
 0001:000038c0       _BotMatch_StopTeamLeaderShip 200048c0 f   ai_cmd.obj
 0001:00003980       _BotMatch_WhoIsTeamLeader  20004980 f   ai_cmd.obj
 0001:000039e0       _BotMatch_WhatAreYouDoing  200049e0 f   ai_cmd.obj
 0001:00003bc0       _BotMatch_WhatIsMyCommand  20004bc0 f   ai_cmd.obj
 0001:00003c00       _BotNearestVisibleItem     20004c00 f   ai_cmd.obj
 0001:00003d20       _BotMatch_WhereAreYou      20004d20 f   ai_cmd.obj
 0001:00003f50       _BotMatch_LeadTheWay       20004f50 f   ai_cmd.obj
 0001:00004170       _BotMatch_Kill             20005170 f   ai_cmd.obj
 0001:00004280       _BotMatch_CTF              20005280 f   ai_cmd.obj
 0001:000043e0       _BotMatch_EnterGame        200053e0 f   ai_cmd.obj
 0001:00004420       _BotMatch_NewLeader        20005420 f   ai_cmd.obj
 0001:00004470       _BotMatchMessage           20005470 f   ai_cmd.obj
 0001:00004920       _BotResetNodeSwitches      20005920 f   ai_dmnet.obj
 0001:00004930       _BotDumpNodeSwitches       20005930 f   ai_dmnet.obj
 0001:000049b0       _BotRecordNodeSwitch       200059b0 f   ai_dmnet.obj
 0001:00004a20       _BotGetAirGoal             20005a20 f   ai_dmnet.obj
 0001:00004bc0       _BotGoForAir               20005bc0 f   ai_dmnet.obj
 0001:00004cd0       _BotNearbyGoal             20005cd0 f   ai_dmnet.obj
 0001:00004d70       _BotReachedGoal            20005d70 f   ai_dmnet.obj
 0001:00004eb0       _BotGetItemLongTermGoal    20005eb0 f   ai_dmnet.obj
 0001:00004f80       _BotGetLongTermGoal        20005f80 f   ai_dmnet.obj
 0001:000066e0       _BotLongTermGoal           200076e0 f   ai_dmnet.obj
 0001:00006b10       _AINode_Observer           20007b10 f   ai_dmnet.obj
 0001:00006b60       _AINode_Respawn            20007b60 f   ai_dmnet.obj
 0001:00006c40       _BotSelectActivateWeapon   20007c40 f   ai_dmnet.obj
 0001:00006d00       _BotClearPath              20007d00 f   ai_dmnet.obj
 0001:00007070       _AIEnter_Battle_SuicidalFight 20008070 f   ai_dmnet.obj
 0001:000070c0       _AIEnter_Battle_NBG        200080c0 f   ai_dmnet.obj
 0001:000070f0       _AIEnter_Respawn           200080f0 f   ai_dmnet.obj
 0001:000071d0       _AINode_Battle_Retreat     200081d0 f   ai_dmnet.obj
 0001:00007710       _AIEnter_Battle_Retreat    20008710 f   ai_dmnet.obj
 0001:00007740       _AINode_Battle_Chase       20008740 f   ai_dmnet.obj
 0001:00007c10       _AIEnter_Battle_Chase      20008c10 f   ai_dmnet.obj
 0001:00007c50       _AINode_Battle_Fight       20008c50 f   ai_dmnet.obj
 0001:000080f0       _AIEnter_Battle_Fight      200090f0 f   ai_dmnet.obj
 0001:00008130       _AINode_Seek_NBG           20009130 f   ai_dmnet.obj
 0001:00008510       _AIEnter_Seek_NBG          20009510 f   ai_dmnet.obj
 0001:000085b0       _AINode_Seek_LTG           200095b0 f   ai_dmnet.obj
 0001:00008b30       _AIEnter_Seek_LTG          20009b30 f   ai_dmnet.obj
 0001:00008bd0       _AINode_Stand              20009bd0 f   ai_dmnet.obj
 0001:00008ce0       _AIEnter_Stand             20009ce0 f   ai_dmnet.obj
 0001:00008d20       _AINode_Intermission       20009d20 f   ai_dmnet.obj
 0001:00008da0       _AIEnter_Intermission      20009da0 f   ai_dmnet.obj
 0001:00008e00       _AINode_Seek_ActivateEntity 20009e00 f   ai_dmnet.obj
 0001:000093c0       _AINode_Battle_NBG         2000a3c0 f   ai_dmnet.obj
 0001:000097d0       _AIEnter_Seek_ActivateEntity 2000a7d0 f   ai_dmnet.obj
 0001:00009800       _BotSetUserInfo            2000a800 f   ai_dmq3.obj
 0001:00009860       _BotCTFCarryingFlag        2000a860 f   ai_dmq3.obj
 0001:000098a0       _BotTeam                   2000a8a0 f   ai_dmq3.obj
 0001:00009930       _BotOppositeTeam           2000a930 f   ai_dmq3.obj
 0001:00009960       _EntityIsDead              2000a960 f   ai_dmq3.obj
 0001:000099a0       _EntityCarriesFlag         2000a9a0 f   ai_dmq3.obj
 0001:000099c0       _EntityIsInvisible         2000a9c0 f   ai_dmq3.obj
 0001:000099e0       _EntityIsShooting          2000a9e0 f   ai_dmq3.obj
 0001:000099f0       _BotRememberLastOrderedTask 2000a9f0 f   ai_dmq3.obj
 0001:00009a40       _BotRefuseOrder            2000aa40 f   ai_dmq3.obj
 0001:00009ab0       _BotCTFRetreatGoals        2000aab0 f   ai_dmq3.obj
 0001:00009b20       _BotPointAreaNum           2000ab20 f   ai_dmq3.obj
 0001:00009b80       _ClientName                2000ab80 f   ai_dmq3.obj
 0001:00009c10       _ClientFromName            2000ac10 f   ai_dmq3.obj
 0001:00009cb0       _stristr                   2000acb0 f   ai_dmq3.obj
 0001:00009d20       _EasyClientName            2000ad20 f   ai_dmq3.obj
 0001:00009ee0       _BotSynonymContext         2000aee0 f   ai_dmq3.obj
 0001:00009f10       _BotChooseWeapon           2000af10 f   ai_dmq3.obj
 0001:00009f80       _BotSetupForMovement       2000af80 f   ai_dmq3.obj
 0001:0000a090       _BotUpdateInventory        2000b090 f   ai_dmq3.obj
 0001:0000a260       _BotUpdateBattleInventory  2000b260 f   ai_dmq3.obj
 0001:0000a2d0       _BotBattleUseItems         2000b2d0 f   ai_dmq3.obj
 0001:0000a340       _BotIsDead                 2000b340 f   ai_dmq3.obj
 0001:0000a350       _BotIsObserver             2000b350 f   ai_dmq3.obj
 0001:0000a3b0       _BotIntermission           2000b3b0 f   ai_dmq3.obj
 0001:0000a3e0       _BotInLavaOrSlime          2000b3e0 f   ai_dmq3.obj
 0001:0000a420       _BotCreateWayPoint         2000b420 f   ai_dmq3.obj
 0001:0000a4b0       _BotFindWayPoint           2000b4b0 f   ai_dmq3.obj
 0001:0000a4f0       _BotFreeWaypoints          2000b4f0 f   ai_dmq3.obj
 0001:0000a520       _TeamPlayIsOn              2000b520 f   ai_dmq3.obj
 0001:0000a530       _BotAggression             2000b530 f   ai_dmq3.obj
 0001:0000a650       _BotWantsToRetreat         2000b650 f   ai_dmq3.obj
 0001:0000a6e0       _BotWantsToChase           2000b6e0 f   ai_dmq3.obj
 0001:0000a770       _BotCanAndWantsToRocketJump 2000b770 f   ai_dmq3.obj
 0001:0000a7f0       _BotHasPersistantPowerupAndWeapon 2000b7f0 f   ai_dmq3.obj
 0001:0000a8c0       _BotGoCamp                 2000b8c0 f   ai_dmq3.obj
 0001:0000a990       _BotWantsToCamp            2000b990 f   ai_dmq3.obj
 0001:0000ab60       _BotDontAvoid              2000bb60 f   ai_dmq3.obj
 0001:0000abc0       _BotGoForPowerups          2000bbc0 f   ai_dmq3.obj
 0001:0000ac10       _BotRoamGoal               2000bc10 f   ai_dmq3.obj
 0001:0000aef0       _BotAttackMove             2000bef0 f   ai_dmq3.obj
 0001:0000b450       _BotSameTeam               2000c450 f   ai_dmq3.obj
 0001:0000b510       _InFieldOfVision           2000c510 f   ai_dmq3.obj
 0001:0000b5e0       _BotEntityVisible          2000c5e0 f   ai_dmq3.obj
 0001:0000b9e0       _BotFindEnemy              2000c9e0 f   ai_dmq3.obj
 0001:0000bdf0       _BotTeamFlagCarrierVisible 2000cdf0 f   ai_dmq3.obj
 0001:0000bea0       _BotTeamFlagCarrier        2000cea0 f   ai_dmq3.obj
 0001:0000bf20       _BotEnemyFlagCarrierVisible 2000cf20 f   ai_dmq3.obj
 0001:0000bfd0       _BotAimAtEnemy             2000cfd0 f   ai_dmq3.obj
 0001:0000cef0       _BotCheckAttack            2000def0 f   ai_dmq3.obj
 0001:0000d370       _BotMapScripts             2000e370 f   ai_dmq3.obj
 0001:0000d690       _BotSetMovedir             2000e690 f   ai_dmq3.obj
 0001:0000d750       _BotModelMinsMaxs          2000e750 f   ai_dmq3.obj
 0001:0000d840       _BotFuncButtonActivateGoal 2000e840 f   ai_dmq3.obj
 0001:0000e000       _BotFuncDoorActivateGoal   2000f000 f   ai_dmq3.obj
 0001:0000e120       _BotTriggerMultipleActivateGoal 2000f120 f   ai_dmq3.obj
 0001:0000e2d0       _BotPushOntoActivateGoalStack 2000f2d0 f   ai_dmq3.obj
 0001:0000e450       _BotEnableActivateGoalAreas 2000f450 f   ai_dmq3.obj
 0001:0000e4b0       _BotIsGoingToActivateEntity 2000f4b0 f   ai_dmq3.obj
 0001:0000e530       _BotGetActivateGoal        2000f530 f   ai_dmq3.obj
 0001:0000ecd0       _BotGoForActivateGoal      2000fcd0 f   ai_dmq3.obj
 0001:0000ed80       _BotRandomMove             2000fd80 f   ai_dmq3.obj
 0001:0000ee10       _BotAIBlocked              2000fe10 f   ai_dmq3.obj
 0001:0000f0d0       _BotAIPredictObstacles     200100d0 f   ai_dmq3.obj
 0001:0000f260       _BotCheckConsoleMessages   20010260 f   ai_dmq3.obj
 0001:0000f5f0       _BotCheckEvents            200105f0 f   ai_dmq3.obj
 0001:0000f930       _BotCheckSnapshot          20010930 f   ai_dmq3.obj
 0001:0000fa20       _BotAlternateRoute         20010a20 f   ai_dmq3.obj
 0001:0000faa0       _BotGetAlternateRouteGoal  20010aa0 f   ai_dmq3.obj
 0001:0000fb80       _BotDeathmatchAI           20010b80 f   ai_dmq3.obj
 0001:0000fea0       _BotSetupDeathmatchAI      20010ea0 f   ai_dmq3.obj
 0001:00010070       _BotSetLastOrderedTask     20011070 f   ai_dmq3.obj
 0001:000101b0       _BotCTFSeekGoals           200111b0 f   ai_dmq3.obj
 0001:000108c0       _BotTeamGoals              200118c0 f   ai_dmq3.obj
 0001:00010930       _ClientOnSameTeamFromName  20011930 f   ai_dmq3.obj
 0001:000109f0       _BotPopFromActivateGoalStack 200119f0 f   ai_dmq3.obj
 0001:00010a40       _BotClearActivateGoalStack 20011a40 f   ai_dmq3.obj
 0001:00010af0       _BotAI_Print               20011af0 f   ai_main.obj
 0001:00010bd0       _BotAI_Trace               20011bd0 f   ai_main.obj
 0001:00010c70       _BotAI_GetClientState      20011c70 f   ai_main.obj
 0001:00010cb0       _BotAI_GetEntityState      20011cb0 f   ai_main.obj
 0001:00010d10       _BotAI_GetSnapshotEntity   20011d10 f   ai_main.obj
 0001:00010d50       _BotAI_BotInitialChat      20011d50 f   ai_main.obj
 0001:00010df0       _BotSetInfoConfigString    20011df0 f   ai_main.obj
 0001:00011100       _BotUpdateInfoConfigStrings 20012100 f   ai_main.obj
 0001:000111b0       _BotInterbreedBots         200121b0 f   ai_main.obj
 0001:00011300       _BotWriteInterbreeded      20012300 f   ai_main.obj
 0001:00011560       _BotInterbreedEndMatch     20012560 f   ai_main.obj
 0001:000115e0       _BotEntityInfo             200125e0 f   ai_main.obj
 0001:000115f0       _NumBots                   200125f0 f   ai_main.obj
 0001:00011600       _BotTeamLeader             20012600 f   ai_main.obj
 0001:00011630       _BotChangeViewAngle        20012630 f   ai_main.obj
 0001:00011700       _BotChangeViewAngles       20012700 f   ai_main.obj
 0001:00011990       _BotInputToUserCommand     20012990 f   ai_main.obj
 0001:00011c00       _BotUpdateInput            20012c00 f   ai_main.obj
 0001:00011ce0       _RemoveColorEscapeSequences 20012ce0 f   ai_main.obj
 0001:00011d30       _BotAI                     20012d30 f   ai_main.obj
 0001:00012050       _BotScheduleBotThink       20013050 f   ai_main.obj
 0001:000120f0       _BotWriteSessionData       200130f0 f   ai_main.obj
 0001:000121c0       _BotAIShutdownClient       200131c0 f   ai_main.obj
 0001:000122a0       _BotResetState             200132a0 f   ai_main.obj
 0001:00012420       _BotAILoadMap              20013420 f   ai_main.obj
 0001:000124a0       _BotInitLibrary            200134a0 f   ai_main.obj
 0001:00012900       _BotAISetup                20013900 f   ai_main.obj
 0001:00012a60       _BotAIShutdown             20013a60 f   ai_main.obj
 0001:00012ab0       _BotInterbreeding          20013ab0 f   ai_main.obj
 0001:00012ba0       _BotAIStartFrame           20013ba0 f   ai_main.obj
 0001:00013090       _BotNumTeamMates           20014090 f   ai_team.obj
 0001:00013170       _BotClientTravelTimeToGoal 20014170 f   ai_team.obj
 0001:000131d0       _BotSortTeamMatesByBaseTravelTime 200141d0 f   ai_team.obj
 0001:000133a0       _BotSetTeamMateTaskPreference 200143a0 f   ai_team.obj
 0001:000133f0       _BotGetTeamMateTaskPreference 200143f0 f   ai_team.obj
 0001:00013440       _BotSortTeamMatesByTaskPreference 20014440 f   ai_team.obj
 0001:00013550       _BotSayTeamOrderAlways     20014550 f   ai_team.obj
 0001:000135f0       _BotCTFOrders_BothFlagsNotAtBase 200145f0 f   ai_team.obj
 0001:000138e0       _BotCTFOrders_FlagNotAtBase 200148e0 f   ai_team.obj
 0001:00013cd0       _BotCTFOrders_EnemyFlagNotAtBase 20014cd0 f   ai_team.obj
 0001:00013f80       _BotCTFOrders_BothFlagsAtBase 20014f80 f   ai_team.obj
 0001:00014370       _BotCTFOrders              20015370 f   ai_team.obj
 0001:000143f0       _BotCreateGroup            200153f0 f   ai_team.obj
 0001:00014490       _BotTeamOrders             20015490 f   ai_team.obj
 0001:00014630       _FindHumanTeamLeader       20015630 f   ai_team.obj
 0001:000146b0       _BotTeamAI                 200156b0 f   ai_team.obj
 0001:00014a60       _BotVoiceChat_GetFlag      20015a60 f   ai_vcmd.obj
 0001:00014b20       _BotVoiceChat_Offense      20015b20 f   ai_vcmd.obj
 0001:00014bc0       _BotVoiceChat_Defend       20015bc0 f   ai_vcmd.obj
 0001:00014c90       _BotVoiceChat_DefendFlag   20015c90 f   ai_vcmd.obj
 0001:00014ca0       _BotVoiceChat_Patrol       20015ca0 f   ai_vcmd.obj
 0001:00014d00       _BotVoiceChat_Camp         20015d00 f   ai_vcmd.obj
 0001:00014e70       _BotVoiceChat_FollowMe     20015e70 f   ai_vcmd.obj
 0001:00015000       _BotVoiceChat_FollowFlagCarrier 20016000 f   ai_vcmd.obj
 0001:00015030       _BotVoiceChat_ReturnFlag   20016030 f   ai_vcmd.obj
 0001:000150c0       _BotVoiceChat_StartLeader  200160c0 f   ai_vcmd.obj
 0001:000150e0       _BotVoiceChat_StopLeader   200160e0 f   ai_vcmd.obj
 0001:00015130       _BotVoiceChat_WhoIsLeader  20016130 f   ai_vcmd.obj
 0001:000151b0       _BotVoiceChat_WantOnDefense 200161b0 f   ai_vcmd.obj
 0001:00015230       _BotVoiceChat_WantOnOffense 20016230 f   ai_vcmd.obj
 0001:000152b0       _BotVoiceChat_Dummy        200162b0 f   ai_vcmd.obj
 0001:000152b0       _SP_info_player_intermission 200162b0 f   g_client.obj
 0001:000152b0       _SP_team_CTF_redplayer     200162b0 f   g_team.obj
 0001:000152b0       _BotVoiceChat              200162b0 f   ai_team.obj
 0001:000152b0       _BotVoiceChatOnly          200162b0 f   ai_team.obj
 0001:000152b0       _SP_team_CTF_redspawn      200162b0 f   g_team.obj
 0001:000152b0       _SP_team_CTF_bluespawn     200162b0 f   g_team.obj
 0001:000152b0       _BotSetTeamStatus          200162b0 f   ai_dmq3.obj
 0001:000152b0       _SP_misc_teleporter_dest   200162b0 f   g_misc.obj
 0001:000152b0       _SP_team_CTF_blueplayer    200162b0 f   g_team.obj
 0001:000152c0       _BG_FindItemForPowerup     200162c0 f   bg_misc.obj
 0001:00015310       _BG_FindItemForWeapon      20016310 f   bg_misc.obj
 0001:00015360       _BG_FindItem               20016360 f   bg_misc.obj
 0001:000153a0       _BG_CanItemBeGrabbed       200163a0 f   bg_misc.obj
 0001:00015530       _BG_EvaluateTrajectory     20016530 f   bg_misc.obj
 0001:000156c0       _BG_EvaluateTrajectoryDelta 200166c0 f   bg_misc.obj
 0001:000157c0       _BG_AddPredictableEventToPlayerstate 200167c0 f   bg_misc.obj
 0001:000157f0       _BG_TouchJumpPad           200167f0 f   bg_misc.obj
 0001:000158a0       _BG_PlayerStateToEntityState 200168a0 f   bg_misc.obj
 0001:00015b10       _BG_PlayerStateToEntityStateExtraPolate 20016b10 f   bg_misc.obj
 0001:00015d90       _BG_PlayerTouchesItem      20016d90 f   bg_misc.obj
 0001:00015e30       _PM_AddEvent               20016e30 f   bg_pmove.obj
 0001:00015e50       _PM_AddTouchEnt            20016e50 f   bg_pmove.obj
 0001:00015f30       _PM_ClipVelocity           20016f30 f   bg_pmove.obj
 0001:00018370       _PM_UpdateViewAngles       20019370 f   bg_pmove.obj
 0001:00018440       _PmoveSingle               20019440 f   bg_pmove.obj
 0001:000187a0       _Pmove                     200197a0 f   bg_pmove.obj
 0001:00018830       _PM_SlideMove              20019830 f   bg_slidemove.obj
 0001:00018f20       _PM_StepSlideMove          20019f20 f   bg_slidemove.obj
 0001:00019270       _P_DamageFeedback          2001a270 f   g_active.obj
 0001:000193a0       _P_WorldEffects            2001a3a0 f   g_active.obj
 0001:00019550       _ClientImpacts             2001a550 f   g_active.obj
 0001:000195f0       _G_TouchTriggers           2001a5f0 f   g_active.obj
 0001:00019800       _SpectatorThink            2001a800 f   g_active.obj
 0001:000198f0       _ClientInactivityTimer     2001a8f0 f   g_active.obj
 0001:00019a00       _ClientTimerActions        2001aa00 f   g_active.obj
 0001:00019b20       _ClientIntermissionThink   2001ab20 f   g_active.obj
 0001:00019b60       _ClientEvents              2001ab60 f   g_active.obj
 0001:00019d50       _SendPendingPredictableEvents 2001ad50 f   g_active.obj
 0001:00019e00       _ClientThink_real          2001ae00 f   g_active.obj
 0001:0001a2c0       _ClientThink               2001b2c0 f   g_active.obj
 0001:0001a320       _G_RunClient               2001b320 f   g_active.obj
 0001:0001a360       _SpectatorClientEndFrame   2001b360 f   g_active.obj
 0001:0001a470       _ClientEndFrame            2001b470 f   g_active.obj
 0001:0001a600       _UpdateTournamentInfo      2001b600 f   g_arenas.obj
 0001:0001b0b0       _SpawnModelsOnVictoryPads  2001c0b0 f   g_arenas.obj
 0001:0001b1d0       _Svcmd_AbortPodium_f       2001c1d0 f   g_arenas.obj
 0001:0001b200       _G_ParseInfos              2001c200 f   g_bot.obj
 0001:0001b5f0       _G_GetArenaInfoByMap       2001c5f0 f   g_bot.obj
 0001:0001b6b0       _G_AddRandomBot            2001c6b0 f   g_bot.obj
 0001:0001b920       _G_RemoveRandomBot         2001c920 f   g_bot.obj
 0001:0001b9c0       _G_CountHumanPlayers       2001c9c0 f   g_bot.obj
 0001:0001ba20       _G_CountBotPlayers         2001ca20 f   g_bot.obj
 0001:0001bac0       _G_CheckMinimumPlayers     2001cac0 f   g_bot.obj
 0001:0001bc40       _G_CheckBotSpawn           2001cc40 f   g_bot.obj
 0001:0001bd10       _Svcmd_BotList_f           2001cd10 f   g_bot.obj
 0001:0001c230       _G_GetBotInfoByName        2001d230 f   g_bot.obj
 0001:0001c280       _G_InitBots                2001d280 f   g_bot.obj
 0001:0001c7b0       _Svcmd_AddBot_f            2001d7b0 f   g_bot.obj
 0001:0001c900       _SP_info_player_deathmatch 2001d900 f   g_client.obj
 0001:0001c960       _SP_info_player_start      2001d960 f   g_client.obj
 0001:0001c980       _SpotWouldTelefrag         2001d980 f   g_client.obj
 0001:0001ca40       _SelectRandomFurthestSpawnPoint 2001da40 f   g_client.obj
 0001:0001cd00       _SelectSpawnPoint          2001dd00 f   g_client.obj
 0001:0001cd10       _SelectInitialSpawnPoint   2001dd10 f   g_client.obj
 0001:0001cdb0       _InitBodyQue               2001ddb0 f   g_client.obj
 0001:0001cdf0       _BodySink                  2001ddf0 f   g_client.obj
 0001:0001ce40       _CopyToBodyQue             2001de40 f   g_client.obj
 0001:0001d0a0       _SetClientViewAngle        2001e0a0 f   g_client.obj
 0001:0001d150       _TeamCount                 2001e150 f   g_client.obj
 0001:0001d1a0       _TeamLeader                2001e1a0 f   g_client.obj
 0001:0001d1f0       _PickTeam                  2001e1f0 f   g_client.obj
 0001:0001d2f0       _ClientUserinfoChanged     2001e2f0 f   g_client.obj
 0001:0001d7f0       _ClientConnect             2001e7f0 f   g_client.obj
 0001:0001d960       _ClientDisconnect          2001e960 f   g_client.obj
 0001:0001db40       _PersReadClient            2001eb40 f   g_client.obj
 0001:0001db80       _PersReadEntity            2001eb80 f   g_client.obj
 0001:0001dbc0       _G_LoadPersistant          2001ebc0 f   g_client.obj
 0001:0001dc90       _ClientSpawn               2001ec90 f   g_client.obj
 0001:0001e280       _respawn                   2001f280 f   g_client.obj
 0001:0001e2a0       _ClientBegin               2001f2a0 f   g_client.obj
 0001:0001e330       _DeathmatchScoreboardMessage 2001f330 f   g_cmds.obj
 0001:0001e500       _Cmd_Score_f               2001f500 f   g_cmds.obj
 0001:0001e510       _CheatsOk                  2001f510 f   g_cmds.obj
 0001:0001e590       _ConcatArgs                2001f590 f   g_cmds.obj
 0001:0001e640       _SanitizeString            2001f640 f   g_cmds.obj
 0001:0001e690       _ClientNumberFromString    2001f690 f   g_cmds.obj
 0001:0001e840       _Cmd_Give_f                2001f840 f   g_cmds.obj
 0001:0001eaa0       _Cmd_God_f                 2001faa0 f   g_cmds.obj
 0001:0001eb00       _Cmd_Notarget_f            2001fb00 f   g_cmds.obj
 0001:0001eb60       _Cmd_Noclip_f              2001fb60 f   g_cmds.obj
 0001:0001ebd0       _Cmd_LevelShot_f           2001fbd0 f   g_cmds.obj
 0001:0001ec40       _Cmd_TeamTask_f            2001fc40 f   g_cmds.obj
 0001:0001ece0       _Cmd_Kill_f                2001fce0 f   g_cmds.obj
 0001:0001ed30       _BroadcastTeamChange       2001fd30 f   g_cmds.obj
 0001:0001edb0       _SetTeam                   2001fdb0 f   g_cmds.obj
 0001:0001f0e0       _StopFollowing             200200e0 f   g_cmds.obj
 0001:0001f150       _Cmd_Team_f                20020150 f   g_cmds.obj
 0001:0001f2d0       _Cmd_Follow_f              200202d0 f   g_cmds.obj
 0001:0001f3d0       _Cmd_FollowCycle_f         200203d0 f   g_cmds.obj
 0001:0001f570       _G_Say                     20020570 f   g_cmds.obj
 0001:0001f950       _G_Voice                   20020950 f   g_cmds.obj
 0001:0001fce0       _Cmd_GameCommand_f         20020ce0 f   g_cmds.obj
 0001:0001fd80       _Cmd_Where_f               20020d80 f   g_cmds.obj
 0001:0001fdc0       _Cmd_CallVote_f            20020dc0 f   g_cmds.obj
 0001:00020380       _Cmd_Vote_f                20021380 f   g_cmds.obj
 0001:000204d0       _Cmd_CallTeamVote_f        200214d0 f   g_cmds.obj
 0001:00020a80       _Cmd_TeamVote_f            20021a80 f   g_cmds.obj
 0001:00020be0       _Cmd_SetViewpos_f          20021be0 f   g_cmds.obj
 0001:00020d00       _ClientCommand             20021d00 f   g_cmds.obj
 0001:00021450       _AddScore                  20022450 f   g_combat.obj
 0001:000214d0       _TossClientItems           200224d0 f   g_combat.obj
 0001:000215f0       _LookAtKiller              200225f0 f   g_combat.obj
 0001:00021680       _GibEntity                 20022680 f   g_combat.obj
 0001:00021710       _body_die                  20022710 f   g_combat.obj
 0001:00021740       _CheckAlmostCapture        20022740 f   g_combat.obj
 0001:00021830       _CheckAlmostScored         20022830 f   g_combat.obj
 0001:000218e0       _player_die                200228e0 f   g_combat.obj
 0001:00021dc0       _CheckArmor                20022dc0 f   g_combat.obj
 0001:00021e20       _G_Damage                  20022e20 f   g_combat.obj
 0001:00022280       _CanDamage                 20023280 f   g_combat.obj
 0001:000224c0       _G_RadiusDamage            200234c0 f   g_combat.obj
 0001:00022700       _Pickup_Powerup            20023700 f   g_items.obj
 0001:000228d0       _Pickup_Holdable           200238d0 f   g_items.obj
 0001:00022930       _Pickup_Ammo               20023930 f   g_items.obj
 0001:000229a0       _Pickup_Weapon             200239a0 f   g_items.obj
 0001:00022a90       _Pickup_Health             20023a90 f   g_items.obj
 0001:00022b10       _Pickup_Armor              20023b10 f   g_items.obj
 0001:00022b60       _RespawnItem               20023b60 f   g_items.obj
 0001:00022cc0       _Touch_Item                20023cc0 f   g_items.obj
 0001:00022fb0       _LaunchItem                20023fb0 f   g_items.obj
 0001:000230f0       _Drop_Item                 200240f0 f   g_items.obj
 0001:000231a0       _Use_Item                  200241a0 f   g_items.obj
 0001:000231b0       _FinishSpawningItem        200241b0 f   g_items.obj
 0001:000233a0       _G_CheckTeamItems          200243a0 f   g_items.obj
 0001:00023440       _RegisterItem              20024440 f   g_items.obj
 0001:00023480       _SaveRegisteredItems       20024480 f   g_items.obj
 0001:000234e0       _G_SpawnItem               200244e0 f   g_items.obj
 0001:000235e0       _G_BounceItem              200245e0 f   g_items.obj
 0001:00023760       _G_RunItem                 20024760 f   g_items.obj
 0001:000238a0       _ClearRegisteredItems      200248a0 f   g_items.obj
 0001:00023930       _G_Printf                  20024930 f   g_main.obj
 0001:00023960       _G_Error                   20024960 f   g_main.obj
 0001:00023990       _G_FindTeams               20024990 f   g_main.obj
 0001:00023b10       _G_RegisterCvars           20024b10 f   g_main.obj
 0001:00023b80       _G_UpdateCvars             20024b80 f   g_main.obj
 0001:00023bf0       _Com_Error                 20024bf0 f   g_main.obj
 0001:00023c30       _Com_Printf                20024c30 f   g_main.obj
 0001:00023c70       _RemoveTournamentLoser     20024c70 f   g_main.obj
 0001:00023cc0       _AdjustTournamentScores    20024cc0 f   g_main.obj
 0001:00023d30       _SortRanks                 20024d30 f   g_main.obj
 0001:00023e10       _SendScoreboardMessageToAllClients 20024e10 f   g_main.obj
 0001:00023e70       _MoveClientToIntermission  20024e70 f   g_main.obj
 0001:00023f60       _FindIntermissionPoint     20024f60 f   g_main.obj
 0001:00024020       _BeginIntermission         20025020 f   g_main.obj
 0001:000240b0       _ExitLevel                 200250b0 f   g_main.obj
 0001:000241b0       _G_LogPrintf               200251b0 f   g_main.obj
 0001:00024280       _LogExit                   20025280 f   g_main.obj
 0001:00024360       _CheckIntermissionExit     20025360 f   g_main.obj
 0001:000244a0       _ScoreIsTied               200254a0 f   g_main.obj
 0001:00024500       _CheckExitRules            20025500 f   g_main.obj
 0001:000246b0       _PrintTeam                 200256b0 f   g_main.obj
 0001:00024700       _SetLeader                 20025700 f   g_main.obj
 0001:00024800       _CheckTeamLeader           20025800 f   g_main.obj
 0001:000248c0       _G_RunThink                200258c0 f   g_main.obj
 0001:00024920       _G_RunFrame                20025920 f   g_main.obj
 0001:00024b50       _G_InitGame                20025b50 f   g_main.obj
 0001:00024d90       _G_ShutdownGame            20025d90 f   g_main.obj
 0001:00024df0       _CalculateRanks            20025df0 f   g_main.obj
 0001:00025110       _vmMain                    20026110 f   g_main.obj
 0001:00025210       _G_Alloc                   20026210 f   g_mem.obj
 0001:00025280       _G_InitMemory              20026280 f   g_mem.obj
 0001:00025290       _Svcmd_GameMem_f           20026290 f   g_mem.obj
 0001:000252b0       _TeleportPlayer            200262b0 f   g_misc.obj
 0001:00025410       _SP_misc_model             20026410 f   g_misc.obj
 0001:00025410       _SP_light                  20026410 f   g_misc.obj
 0001:00025410       _SP_info_null              20026410 f   g_misc.obj
 0001:00025420       _locateCamera              20026420 f   g_misc.obj
 0001:00025530       _SP_misc_portal_surface    20026530 f   g_misc.obj
 0001:000255b0       _SP_misc_portal_camera     200265b0 f   g_misc.obj
 0001:00025610       _Use_Shooter               20026610 f   g_misc.obj
 0001:00025810       _InitShooter               20026810 f   g_misc.obj
 0001:000258b0       _SP_shooter_rocket         200268b0 f   g_misc.obj
 0001:000258c0       _SP_shooter_plasma         200268c0 f   g_misc.obj
 0001:000258d0       _SP_shooter_grenade        200268d0 f   g_misc.obj
 0001:000258e0       _G_ExplodeMissile          200268e0 f   g_missile.obj
 0001:000259f0       _fire_plasma               200269f0 f   g_missile.obj
 0001:00025b40       _fire_grenade              20026b40 f   g_missile.obj
 0001:00025ca0       _fire_bfg                  20026ca0 f   g_missile.obj
 0001:00025e00       _fire_rocket               20026e00 f   g_missile.obj
 0001:00025f60       _fire_grapple              20026f60 f   g_missile.obj
 0001:000260b0       _G_BounceMissile           200270b0 f   g_missile.obj
 0001:00026210       _G_MissileImpact           20027210 f   g_missile.obj
 0001:000265f0       _G_RunMissile              200275f0 f   g_missile.obj
 0001:00026740       _G_TestEntityPosition      20027740 f   g_mover.obj
 0001:000267b0       _SetMoverState             200277b0 f   g_mover.obj
 0001:00026920       _MatchTeam                 20027920 f   g_mover.obj
 0001:00026950       _ReturnToPos1              20027950 f   g_mover.obj
 0001:00026a50       _Reached_BinaryMover       20027a50 f   g_mover.obj
 0001:00026bc0       _Use_BinaryMover           20027bc0 f   g_mover.obj
 0001:00026cf0       _InitMover                 20027cf0 f   g_mover.obj
 0001:00026f30       _Blocked_Door              20027f30 f   g_mover.obj
 0001:000270a0       _Touch_DoorTrigger         200280a0 f   g_mover.obj
 0001:00027100       _Think_SpawnNewDoorTrigger 20028100 f   g_mover.obj
 0001:000272b0       _Think_MatchTeam           200282b0 f   g_mover.obj
 0001:000272e0       _SP_func_door              200282e0 f   g_mover.obj
 0001:00027540       _Touch_Plat                20028540 f   g_mover.obj
 0001:00027580       _Touch_PlatCenterTrigger   20028580 f   g_mover.obj
 0001:000275c0       _SpawnPlatTrigger          200285c0 f   g_mover.obj
 0001:00027710       _SP_func_plat              20028710 f   g_mover.obj
 0001:00027870       _Touch_Button              20028870 f   g_mover.obj
 0001:000278a0       _SP_func_button            200288a0 f   g_mover.obj
 0001:00027a30       _Think_BeginMoving         20028a30 f   g_mover.obj
 0001:00027a50       _Reached_Train             20028a50 f   g_mover.obj
 0001:00027c60       _Think_SetupTrainTargets   20028c60 f   g_mover.obj
 0001:00027d40       _SP_path_corner            20028d40 f   g_mover.obj
 0001:00027d70       _SP_func_train             20028d70 f   g_mover.obj
 0001:00027e30       _SP_func_static            20028e30 f   g_mover.obj
 0001:00027e80       _SP_func_rotating          20028e80 f   g_mover.obj
 0001:00027f50       _SP_func_bobbing           20028f50 f   g_mover.obj
 0001:00028050       _SP_func_pendulum          20029050 f   g_mover.obj
 0001:00028160       _G_TryPushingEntity        20029160 f   g_mover.obj
 0001:00028540       _G_MoverPush               20029540 f   g_mover.obj
 0001:00028a10       _G_MoverTeam               20029a10 f   g_mover.obj
 0001:00028bb0       _G_RunMover                20029bb0 f   g_mover.obj
 0001:00028bf0       _G_WriteClientSessionData  20029bf0 f   g_session.obj
 0001:00028c70       _G_ReadSessionData         20029c70 f   g_session.obj
 0001:00028d20       _G_InitSessionData         20029d20 f   g_session.obj
 0001:00028de0       _G_InitWorldSession        20029de0 f   g_session.obj
 0001:00028e30       _G_WriteSessionData        20029e30 f   g_session.obj
 0001:00028e90       _G_SpawnString             20029e90 f   g_spawn.obj
 0001:00028f00       _G_SpawnFloat              20029f00 f   g_spawn.obj
 0001:00028f30       _G_SpawnInt                20029f30 f   g_spawn.obj
 0001:00028f60       _G_SpawnVector             20029f60 f   g_spawn.obj
 0001:00028fa0       _G_CallSpawn               20029fa0 f   g_spawn.obj
 0001:000290a0       _G_NewString               2002a0a0 f   g_spawn.obj
 0001:00029100       _G_ParseField              2002a100 f   g_spawn.obj
 0001:00029240       _G_SpawnGEntityFromSpawnVars 2002a240 f   g_spawn.obj
 0001:000293c0       _G_AddSpawnVarToken        2002a3c0 f   g_spawn.obj
 0001:00029430       _G_ParseSpawnVars          2002a430 f   g_spawn.obj
 0001:00029550       _SP_worldspawn             2002a550 f   g_spawn.obj
 0001:000296f0       _G_SpawnEntitiesFromString 2002a6f0 f   g_spawn.obj
 0001:00029930       _G_FilterPacket            2002a930 f   g_svcmds.obj
 0001:00029a50       _G_ProcessIPBans           2002aa50 f   g_svcmds.obj
 0001:00029ac0       _Svcmd_AddIP_f             2002aac0 f   g_svcmds.obj
 0001:00029b10       _Svcmd_RemoveIP_f          2002ab10 f   g_svcmds.obj
 0001:00029bd0       _Svcmd_EntityList_f        2002abd0 f   g_svcmds.obj
 0001:00029d60       _ClientForString           2002ad60 f   g_svcmds.obj
 0001:00029e40       _Svcmd_ForceTeam_f         2002ae40 f   g_svcmds.obj
 0001:00029ec0       _ConsoleCommand            2002aec0 f   g_svcmds.obj
 0001:0002a090       _dllEntry                  2002b090 f   g_syscalls.obj
 0001:0002a0a0       _trap_Printf               2002b0a0 f   g_syscalls.obj
 0001:0002a0c0       _trap_Error                2002b0c0 f   g_syscalls.obj
 0001:0002a0e0       _trap_Milliseconds         2002b0e0 f   g_syscalls.obj
 0001:0002a0f0       _trap_Argc                 2002b0f0 f   g_syscalls.obj
 0001:0002a100       _trap_Argv                 2002b100 f   g_syscalls.obj
 0001:0002a120       _trap_FS_FOpenFile         2002b120 f   g_syscalls.obj
 0001:0002a140       _trap_FS_Read              2002b140 f   g_syscalls.obj
 0001:0002a160       _trap_FS_Write             2002b160 f   g_syscalls.obj
 0001:0002a180       _trap_FS_FCloseFile        2002b180 f   g_syscalls.obj
 0001:0002a1a0       _trap_FS_GetFileList       2002b1a0 f   g_syscalls.obj
 0001:0002a1c0       _trap_SendConsoleCommand   2002b1c0 f   g_syscalls.obj
 0001:0002a1e0       _trap_Cvar_Register        2002b1e0 f   g_syscalls.obj
 0001:0002a200       _trap_Cvar_Update          2002b200 f   g_syscalls.obj
 0001:0002a220       _trap_Cvar_Set             2002b220 f   g_syscalls.obj
 0001:0002a240       _trap_Cvar_VariableIntegerValue 2002b240 f   g_syscalls.obj
 0001:0002a260       _trap_Cvar_VariableStringBuffer 2002b260 f   g_syscalls.obj
 0001:0002a280       _trap_LocateGameData       2002b280 f   g_syscalls.obj
 0001:0002a2b0       _trap_DropClient           2002b2b0 f   g_syscalls.obj
 0001:0002a2d0       _trap_SendServerCommand    2002b2d0 f   g_syscalls.obj
 0001:0002a2f0       _trap_SetConfigstring      2002b2f0 f   g_syscalls.obj
 0001:0002a310       _trap_GetConfigstring      2002b310 f   g_syscalls.obj
 0001:0002a330       _trap_GetUserinfo          2002b330 f   g_syscalls.obj
 0001:0002a350       _trap_SetUserinfo          2002b350 f   g_syscalls.obj
 0001:0002a370       _trap_GetServerinfo        2002b370 f   g_syscalls.obj
 0001:0002a390       _trap_SetBrushModel        2002b390 f   g_syscalls.obj
 0001:0002a3b0       _trap_Trace                2002b3b0 f   g_syscalls.obj
 0001:0002a3e0       _trap_PointContents        2002b3e0 f   g_syscalls.obj
 0001:0002a400       _trap_InPVS                2002b400 f   g_syscalls.obj
 0001:0002a420       _trap_AdjustAreaPortalState 2002b420 f   g_syscalls.obj
 0001:0002a440       _trap_LinkEntity           2002b440 f   g_syscalls.obj
 0001:0002a460       _trap_UnlinkEntity         2002b460 f   g_syscalls.obj
 0001:0002a480       _trap_EntitiesInBox        2002b480 f   g_syscalls.obj
 0001:0002a4a0       _trap_EntityContact        2002b4a0 f   g_syscalls.obj
 0001:0002a4c0       _trap_BotAllocateClient    2002b4c0 f   g_syscalls.obj
 0001:0002a4d0       _trap_GetUsercmd           2002b4d0 f   g_syscalls.obj
 0001:0002a4f0       _trap_GetEntityToken       2002b4f0 f   g_syscalls.obj
 0001:0002a510       _trap_SnapVector           2002b510 f   g_syscalls.obj
 0001:0002a530       _trap_BotLibSetup          2002b530 f   g_syscalls.obj
 0001:0002a540       _trap_BotLibShutdown       2002b540 f   g_syscalls.obj
 0001:0002a550       _trap_BotLibVarSet         2002b550 f   g_syscalls.obj
 0001:0002a570       _trap_BotLibStartFrame     2002b570 f   g_syscalls.obj
 0001:0002a590       _trap_BotLibLoadMap        2002b590 f   g_syscalls.obj
 0001:0002a5b0       _trap_BotLibUpdateEntity   2002b5b0 f   g_syscalls.obj
 0001:0002a5d0       _trap_BotGetSnapshotEntity 2002b5d0 f   g_syscalls.obj
 0001:0002a5f0       _trap_BotGetServerCommand  2002b5f0 f   g_syscalls.obj
 0001:0002a610       _trap_BotUserCommand       2002b610 f   g_syscalls.obj
 0001:0002a630       _trap_AAS_EntityInfo       2002b630 f   g_syscalls.obj
 0001:0002a650       _trap_AAS_Initialized      2002b650 f   g_syscalls.obj
 0001:0002a660       _trap_AAS_PresenceTypeBoundingBox 2002b660 f   g_syscalls.obj
 0001:0002a680       _trap_AAS_Time             2002b680 f   g_syscalls.obj
 0001:0002a6a0       _trap_AAS_PointAreaNum     2002b6a0 f   g_syscalls.obj
 0001:0002a6c0       _trap_AAS_TraceAreas       2002b6c0 f   g_syscalls.obj
 0001:0002a6f0       _trap_AAS_BBoxAreas        2002b6f0 f   g_syscalls.obj
 0001:0002a720       _trap_AAS_AreaInfo         2002b720 f   g_syscalls.obj
 0001:0002a740       _trap_AAS_PointContents    2002b740 f   g_syscalls.obj
 0001:0002a760       _trap_AAS_NextBSPEntity    2002b760 f   g_syscalls.obj
 0001:0002a780       _trap_AAS_ValueForBSPEpairKey 2002b780 f   g_syscalls.obj
 0001:0002a7b0       _trap_AAS_VectorForBSPEpairKey 2002b7b0 f   g_syscalls.obj
 0001:0002a7d0       _trap_AAS_FloatForBSPEpairKey 2002b7d0 f   g_syscalls.obj
 0001:0002a7f0       _trap_AAS_IntForBSPEpairKey 2002b7f0 f   g_syscalls.obj
 0001:0002a810       _trap_AAS_AreaReachability 2002b810 f   g_syscalls.obj
 0001:0002a830       _trap_AAS_AreaTravelTimeToGoalArea 2002b830 f   g_syscalls.obj
 0001:0002a860       _trap_AAS_EnableRoutingArea 2002b860 f   g_syscalls.obj
 0001:0002a880       _trap_AAS_PredictRoute     2002b880 f   g_syscalls.obj
 0001:0002a8d0       _trap_AAS_Swimming         2002b8d0 f   g_syscalls.obj
 0001:0002a8f0       _trap_AAS_PredictClientMovement 2002b8f0 f   g_syscalls.obj
 0001:0002a950       _trap_EA_SayTeam           2002b950 f   g_syscalls.obj
 0001:0002a970       _trap_EA_Command           2002b970 f   g_syscalls.obj
 0001:0002a990       _trap_EA_Action            2002b990 f   g_syscalls.obj
 0001:0002a9b0       _trap_EA_Gesture           2002b9b0 f   g_syscalls.obj
 0001:0002a9d0       _trap_EA_Talk              2002b9d0 f   g_syscalls.obj
 0001:0002a9f0       _trap_EA_Attack            2002b9f0 f   g_syscalls.obj
 0001:0002aa10       _trap_EA_Use               2002ba10 f   g_syscalls.obj
 0001:0002aa30       _trap_EA_Respawn           2002ba30 f   g_syscalls.obj
 0001:0002aa50       _trap_EA_Crouch            2002ba50 f   g_syscalls.obj
 0001:0002aa70       _trap_EA_SelectWeapon      2002ba70 f   g_syscalls.obj
 0001:0002aa90       _trap_EA_View              2002ba90 f   g_syscalls.obj
 0001:0002aab0       _trap_EA_GetInput          2002bab0 f   g_syscalls.obj
 0001:0002aae0       _trap_EA_ResetInput        2002bae0 f   g_syscalls.obj
 0001:0002ab00       _trap_BotFreeCharacter     2002bb00 f   g_syscalls.obj
 0001:0002ab20       _trap_Characteristic_BFloat 2002bb20 f   g_syscalls.obj
 0001:0002ab60       _trap_Characteristic_BInteger 2002bb60 f   g_syscalls.obj
 0001:0002ab90       _trap_Characteristic_String 2002bb90 f   g_syscalls.obj
 0001:0002abc0       _trap_BotFreeChatState     2002bbc0 f   g_syscalls.obj
 0001:0002abe0       _trap_BotQueueConsoleMessage 2002bbe0 f   g_syscalls.obj
 0001:0002ac00       _trap_BotRemoveConsoleMessage 2002bc00 f   g_syscalls.obj
 0001:0002ac20       _trap_BotNextConsoleMessage 2002bc20 f   g_syscalls.obj
 0001:0002ac40       _trap_BotNumConsoleMessages 2002bc40 f   g_syscalls.obj
 0001:0002ac60       _trap_BotInitialChat       2002bc60 f   g_syscalls.obj
 0001:0002acb0       _trap_BotReplyChat         2002bcb0 f   g_syscalls.obj
 0001:0002ad00       _trap_BotEnterChat         2002bd00 f   g_syscalls.obj
 0001:0002ad20       _trap_BotGetChatMessage    2002bd20 f   g_syscalls.obj
 0001:0002ad40       _trap_BotFindMatch         2002bd40 f   g_syscalls.obj
 0001:0002ad60       _trap_BotMatchVariable     2002bd60 f   g_syscalls.obj
 0001:0002ad90       _trap_UnifyWhiteSpaces     2002bd90 f   g_syscalls.obj
 0001:0002adb0       _trap_BotReplaceSynonyms   2002bdb0 f   g_syscalls.obj
 0001:0002add0       _trap_BotSetChatGender     2002bdd0 f   g_syscalls.obj
 0001:0002adf0       _trap_BotSetChatName       2002bdf0 f   g_syscalls.obj
 0001:0002ae10       _trap_BotResetGoalState    2002be10 f   g_syscalls.obj
 0001:0002ae30       _trap_BotResetAvoidGoals   2002be30 f   g_syscalls.obj
 0001:0002ae50       _trap_BotRemoveFromAvoidGoals 2002be50 f   g_syscalls.obj
 0001:0002ae70       _trap_BotPushGoal          2002be70 f   g_syscalls.obj
 0001:0002ae90       _trap_BotPopGoal           2002be90 f   g_syscalls.obj
 0001:0002aeb0       _trap_BotEmptyGoalStack    2002beb0 f   g_syscalls.obj
 0001:0002aed0       _trap_BotDumpAvoidGoals    2002bed0 f   g_syscalls.obj
 0001:0002aef0       _trap_BotDumpGoalStack     2002bef0 f   g_syscalls.obj
 0001:0002af10       _trap_BotGoalName          2002bf10 f   g_syscalls.obj
 0001:0002af30       _trap_BotGetTopGoal        2002bf30 f   g_syscalls.obj
 0001:0002af50       _trap_BotGetSecondGoal     2002bf50 f   g_syscalls.obj
 0001:0002af70       _trap_BotChooseLTGItem     2002bf70 f   g_syscalls.obj
 0001:0002afa0       _trap_BotChooseNBGItem     2002bfa0 f   g_syscalls.obj
 0001:0002afe0       _trap_BotTouchingGoal      2002bfe0 f   g_syscalls.obj
 0001:0002b000       _trap_BotItemGoalInVisButNotVisible 2002c000 f   g_syscalls.obj
 0001:0002b030       _trap_BotGetLevelItemGoal  2002c030 f   g_syscalls.obj
 0001:0002b050       _trap_BotGetNextCampSpotGoal 2002c050 f   g_syscalls.obj
 0001:0002b070       _trap_BotSetAvoidGoalTime  2002c070 f   g_syscalls.obj
 0001:0002b0a0       _trap_BotUpdateEntityItems 2002c0a0 f   g_syscalls.obj
 0001:0002b0b0       _trap_BotInterbreedGoalFuzzyLogic 2002c0b0 f   g_syscalls.obj
 0001:0002b0d0       _trap_BotSaveGoalFuzzyLogic 2002c0d0 f   g_syscalls.obj
 0001:0002b0f0       _trap_BotMutateGoalFuzzyLogic 2002c0f0 f   g_syscalls.obj
 0001:0002b110       _trap_BotFreeGoalState     2002c110 f   g_syscalls.obj
 0001:0002b130       _trap_BotResetMoveState    2002c130 f   g_syscalls.obj
 0001:0002b150       _trap_BotAddAvoidSpot      2002c150 f   g_syscalls.obj
 0001:0002b180       _trap_BotMoveToGoal        2002c180 f   g_syscalls.obj
 0001:0002b1b0       _trap_BotMoveInDirection   2002c1b0 f   g_syscalls.obj
 0001:0002b1e0       _trap_BotResetAvoidReach   2002c1e0 f   g_syscalls.obj
 0001:0002b200       _trap_BotResetLastAvoidReach 2002c200 f   g_syscalls.obj
 0001:0002b220       _trap_BotMovementViewTarget 2002c220 f   g_syscalls.obj
 0001:0002b250       _trap_BotPredictVisiblePosition 2002c250 f   g_syscalls.obj
 0001:0002b280       _trap_BotFreeMoveState     2002c280 f   g_syscalls.obj
 0001:0002b2a0       _trap_BotInitMoveState     2002c2a0 f   g_syscalls.obj
 0001:0002b2c0       _trap_BotChooseBestFightWeapon 2002c2c0 f   g_syscalls.obj
 0001:0002b2e0       _trap_BotGetWeaponInfo     2002c2e0 f   g_syscalls.obj
 0001:0002b300       _trap_BotFreeWeaponState   2002c300 f   g_syscalls.obj
 0001:0002b320       _trap_BotResetWeaponState  2002c320 f   g_syscalls.obj
 0001:0002b340       _trap_GeneticParentsAndChildSelection 2002c340 f   g_syscalls.obj
 0001:0002b370       _Use_Target_Give           2002c370 f   g_target.obj
 0001:0002b410       _SP_target_give            2002c410 f   g_target.obj
 0001:0002b420       _Use_target_remove_powerups 2002c420 f   g_target.obj
 0001:0002b480       _SP_target_remove_powerups 2002c480 f   g_target.obj
 0001:0002b490       _Think_Target_Delay        2002c490 f   g_target.obj
 0001:0002b4b0       _Use_Target_Delay          2002c4b0 f   g_target.obj
 0001:0002b510       _SP_target_delay           2002c510 f   g_target.obj
 0001:0002b570       _Use_Target_Score          2002c570 f   g_target.obj
 0001:0002b590       _SP_target_score           2002c590 f   g_target.obj
 0001:0002b5c0       _Use_Target_Print          2002c5c0 f   g_target.obj
 0001:0002b690       _SP_target_print           2002c690 f   g_target.obj
 0001:0002b6a0       _Use_Target_Speaker        2002c6a0 f   g_target.obj
 0001:0002b730       _SP_target_speaker         2002c730 f   g_target.obj
 0001:0002b880       _target_laser_think        2002c880 f   g_target.obj
 0001:0002b9f0       _target_laser_use          2002c9f0 f   g_target.obj
 0001:0002ba40       _target_laser_start        2002ca40 f   g_target.obj
 0001:0002bb20       _SP_target_laser           2002cb20 f   g_target.obj
 0001:0002bb40       _target_teleporter_use     2002cb40 f   g_target.obj
 0001:0002bb90       _SP_target_teleporter      2002cb90 f   g_target.obj
 0001:0002bbd0       _target_relay_use          2002cbd0 f   g_target.obj
 0001:0002bc50       _SP_target_relay           2002cc50 f   g_target.obj
 0001:0002bc60       _target_kill_use           2002cc60 f   g_target.obj
 0001:0002bc80       _SP_target_kill            2002cc80 f   g_target.obj
 0001:0002bc90       _SP_info_notnull           2002cc90 f   g_misc.obj
 0001:0002bc90       _SP_target_position        2002cc90 f   g_target.obj
 0001:0002bc90       _SP_info_camp              2002cc90 f   g_misc.obj
 0001:0002bd60       _SP_target_location        2002cd60 f   g_target.obj
 0001:0002bd90       _TeamName                  2002cd90 f   g_team.obj
 0001:0002bdf0       _PrintMsg                  2002cdf0 f   g_team.obj
 0001:0002bea0       _AddTeamScore              2002cea0 f   g_team.obj
 0001:0002bfa0       _OnSameTeam                2002cfa0 f   g_team.obj
 0001:0002bfe0       _Team_SetFlagStatus        2002cfe0 f   g_team.obj
 0001:0002c090       _Team_CheckDroppedItem     2002d090 f   g_team.obj
 0001:0002c1a0       _Team_ForceGesture         2002d1a0 f   g_team.obj
 0001:0002c240       _Team_FragBonuses          2002d240 f   g_team.obj
 0001:0002c7d0       _Team_CheckHurtCarrier     2002d7d0 f   g_team.obj
 0001:0002c860       _Team_ResetFlag            2002d860 f   g_team.obj
 0001:0002c8f0       _Team_TakeFlagSound        2002d8f0 f   g_team.obj
 0001:0002c990       _Team_CaptureFlagSound     2002d990 f   g_team.obj
 0001:0002c9d0       _Team_ReturnFlag           2002d9d0 f   g_team.obj
 0001:0002ca90       _Team_FreeEntity           2002da90 f   g_team.obj
 0001:0002cbc0       _Team_DroppedFlagThink     2002dbc0 f   g_team.obj
 0001:0002cc40       _Team_TouchOurFlag         2002dc40 f   g_team.obj
 0001:0002cf70       _Team_TouchEnemyFlag       2002df70 f   g_team.obj
 0001:0002d020       _Pickup_Team               2002e020 f   g_team.obj
 0001:0002d0b0       _Team_GetLocation          2002e0b0 f   g_team.obj
 0001:0002d170       _Team_GetLocationMsg       2002e170 f   g_team.obj
 0001:0002d210       _SelectRandomTeamSpawnPoint 2002e210 f   g_team.obj
 0001:0002d2e0       _SelectCTFSpawnPoint       2002e2e0 f   g_team.obj
 0001:0002d340       _Team_InitGame             2002e340 f   g_team.obj
 0001:0002d440       _multi_wait                2002e440 f   g_trigger.obj
 0001:0002d450       _multi_trigger             2002e450 f   g_trigger.obj
 0001:0002d540       _Use_Multi                 2002e540 f   g_trigger.obj
 0001:0002d560       _Touch_Multi               2002e560 f   g_trigger.obj
 0001:0002d580       _trigger_always_think      2002e580 f   g_trigger.obj
 0001:0002d5a0       _SP_trigger_always         2002e5a0 f   g_trigger.obj
 0001:0002d5c0       _trigger_push_touch        2002e5c0 f   g_trigger.obj
 0001:0002d5e0       _AimAtTarget               2002e5e0 f   g_trigger.obj
 0001:0002d6e0       _Use_target_push           2002e6e0 f   g_trigger.obj
 0001:0002d760       _SP_target_push            2002e760 f   g_trigger.obj
 0001:0002d840       _trigger_teleporter_touch  2002e840 f   g_trigger.obj
 0001:0002d8b0       _hurt_use                  2002e8b0 f   g_trigger.obj
 0001:0002d8d0       _hurt_touch                2002e8d0 f   g_trigger.obj
 0001:0002d950       _func_timer_think          2002e950 f   g_trigger.obj
 0001:0002d9b0       _func_timer_use            2002e9b0 f   g_trigger.obj
 0001:0002d9e0       _SP_func_timer             2002e9e0 f   g_trigger.obj
 0001:0002da90       _InitTrigger               2002ea90 f   g_trigger.obj
 0001:0002db10       _SP_trigger_multiple       2002eb10 f   g_trigger.obj
 0001:0002dba0       _SP_trigger_push           2002eba0 f   g_trigger.obj
 0001:0002dc00       _SP_trigger_teleport       2002ec00 f   g_trigger.obj
 0001:0002dc60       _SP_trigger_hurt           2002ec60 f   g_trigger.obj
 0001:0002dcd0       _AddRemap                  2002ecd0 f   g_utils.obj
 0001:0002dd90       _BuildShaderStateConfig    2002ed90 f   g_utils.obj
 0001:0002de20       _G_FindConfigstringIndex   2002ee20 f   g_utils.obj
 0001:0002df10       _G_ModelIndex              2002ef10 f   g_utils.obj
 0001:0002df30       _G_SoundIndex              2002ef30 f   g_utils.obj
 0001:0002df50       _G_TeamCommand             2002ef50 f   g_utils.obj
 0001:0002dfc0       _G_Find                    2002efc0 f   g_utils.obj
 0001:0002e050       _G_PickTarget              2002f050 f   g_utils.obj
 0001:0002e0e0       _G_UseTargets              2002f0e0 f   g_utils.obj
 0001:0002e1b0       _vtos                      2002f1b0 f   g_utils.obj
 0001:0002e200       _G_SetMovedir              2002f200 f   g_utils.obj
 0001:0002e2e0       _vectoyaw                  2002f2e0 f   g_utils.obj
 0001:0002e360       _G_InitGentity             2002f360 f   g_utils.obj
 0001:0002e3a0       _G_Spawn                   2002f3a0 f   g_utils.obj
 0001:0002e4d0       _G_FreeEntity              2002f4d0 f   g_utils.obj
 0001:0002e520       _G_KillBox                 2002f520 f   g_utils.obj
 0001:0002e5f0       _G_AddPredictableEvent     2002f5f0 f   g_utils.obj
 0001:0002e620       _G_AddEvent                2002f620 f   g_utils.obj
 0001:0002e6d0       _G_SetOrigin               2002f6d0 f   g_utils.obj
 0001:0002e720       _G_TempEntity              2002f720 f   g_utils.obj
 0001:0002e7f0       _G_Sound                   2002f7f0 f   g_utils.obj
 0001:0002e810       _SnapVectorTowards         2002f810 f   g_weapon.obj
 0001:0002e860       _BFG_Fire                  2002f860 f   g_weapon.obj
 0001:0002e8b0       _weapon_grenadelauncher_fire 2002f8b0 f   g_weapon.obj
 0001:0002e920       _Weapon_RocketLauncher_Fire 2002f920 f   g_weapon.obj
 0001:0002e970       _Weapon_Plasmagun_Fire     2002f970 f   g_weapon.obj
 0001:0002e9c0       _Weapon_GrapplingHook_Fire 2002f9c0 f   g_weapon.obj
 0001:0002ea30       _Weapon_HookFree           2002fa30 f   g_weapon.obj
 0001:0002ea70       _Weapon_HookThink          2002fa70 f   g_weapon.obj
 0001:0002eb60       _LogAccuracyHit            2002fb60 f   g_weapon.obj
 0001:0002ebb0       _CalcMuzzlePoint           2002fbb0 f   g_weapon.obj
 0001:0002ec50       _CalcMuzzlePointOrigin     2002fc50 f   g_weapon.obj
 0001:0002ecf0       _Laser_Think               2002fcf0 f   g_weapon.obj
 0001:0002ecf0       _Info_Think                2002fcf0 f   g_weapon.obj
 0001:0002ee80       _Bullet_Fire               2002fe80 f   g_weapon.obj
 0001:0002f0b0       _ShotgunPellet             200300b0 f   g_weapon.obj
 0001:0002f180       _ShotgunPattern            20030180 f   g_weapon.obj
 0001:0002f2f0       _weapon_supershotgun_fire  200302f0 f   g_weapon.obj
 0001:0002f3a0       _weapon_railgun_fire       200303a0 f   g_weapon.obj
 0001:0002f650       _Weapon_LightningFire      20030650 f   g_weapon.obj
 0001:0002f7b0       _FireWeapon                200307b0 f   g_weapon.obj
 0001:0002f910       _Info_Gen                  20030910 f   g_weapon.obj
 0001:0002f9e0       _Laser_Gen                 200309e0 f   g_weapon.obj
 0001:0002fa80       _Q_crandom                 20030a80 f   q_math.obj
 0001:0002fab0       _DirToByte                 20030ab0 f   q_math.obj
 0001:0002fc70       _vectoangles               20030c70 f   q_math.obj
 0001:0002fd80       _ProjectPointOnPlane       20030d80 f   q_math.obj
 0001:0002fe00       _AngleMod                  20030e00 f   q_math.obj
 0001:0002fe30       _AngleNormalize180         20030e30 f   q_math.obj
 0001:0002fe70       _RadiusFromBounds          20030e70 f   q_math.obj
 0001:0002fef0       _AddPointToBounds          20030ef0 f   q_math.obj
 0001:0002ff70       _VectorNormalize           20030f70 f   q_math.obj
 0001:0002ffd0       _VectorNormalize2          20030fd0 f   q_math.obj
 0001:00030040       _AngleVectors              20031040 f   q_math.obj
 0001:00030180       _PerpendicularVector       20031180 f   q_math.obj
 0001:00030270       _COM_ParseExt              20031270 f   q_shared.obj
 0001:000303e0       _Q_strrchr                 200313e0 f   q_shared.obj
 0001:00030410       _Q_strncpyz                20031410 f   q_shared.obj
 0001:00030470       _Q_stricmpn                20031470 f   q_shared.obj
 0001:000304f0       _Q_stricmp                 200314f0 f   q_shared.obj
 0001:00030520       _Q_strcat                  20031520 f   q_shared.obj
 0001:00030570       _Q_CleanStr                20031570 f   q_shared.obj
 0001:000305c0       _Com_sprintf               200315c0 f   q_shared.obj
 0001:00030640       _va                        20031640 f   q_shared.obj
 0001:00030680       _Info_ValueForKey          20031680 f   q_shared.obj
 0001:00030780       _Info_RemoveKey            20031780 f   q_shared.obj
 0001:00030880       _Info_Validate             20031880 f   q_shared.obj
 0001:000308b0       _Info_SetValueForKey       200318b0 f   q_shared.obj
 0001:00030a80       _COM_Parse                 20031a80 f   q_shared.obj
 0001:00030a90       _atol                      20031a90 f   LIBC:atox.obj
 0001:00030ae8       _atoi                      20031ae8 f   LIBC:atox.obj
 0001:00030aed       _srand                     20031aed f   LIBC:rand.obj
 0001:00030af7       _rand                      20031af7 f   LIBC:rand.obj
 0001:00030b1a       __fpclear                  20031b1a f   LIBC:fpinit.obj
 0001:00030b1b       __cfltcvt_init             20031b1b f   LIBC:fpinit.obj
 0001:00030b53       __fpmath                   20031b53 f   LIBC:fpinit.obj
 0001:00030b74       __ftol2                    20031b74 f   LIBC:ftol2.obj
 0001:00030bf0       _strncpy                   20031bf0 f   LIBC:strncpy.obj
 0001:00030d14       _atof                      20031d14 f   LIBC:atof.obj
 0001:00030d5f       _sscanf                    20031d5f f   LIBC:sscanf.obj
 0001:00030d93       _toupper                   20031d93 f   LIBC:toupper.obj
 0001:00030e70       _memmove                   20031e70 f   LIBC:memmove.obj
 0001:000311b0       _strstr                    200321b0 f   LIBC:strstr.obj
 0001:00031236       _vsprintf                  20032236 f   LIBC:vsprintf.obj
 0001:000312a0       _strchr                    200322a0 f   LIBC:strchr.obj
 0001:000312a6       ___from_strstr_to_strchr   200322a6     LIBC:strchr.obj
 0001:00031360       __alloca_probe             20032360     LIBC:chkstk.obj
 0001:00031360       __chkstk                   20032360 f   LIBC:chkstk.obj
 0001:0003139d       _tolower                   2003239d f   LIBC:tolower.obj
 0001:00031480       _ceil                      20032480 f   LIBC:ceil_pentium4.obj
 0001:000314c0       __ceil_pentium4            200324c0 f   LIBC:ceil_pentium4.obj
 0001:00031610       _qsort                     20032610 f   LIBC:qsort.obj
 0001:00031893       __CRT_INIT@12              20032893 f   LIBC:dllcrt0.obj
 0001:0003199e       __DllMainCRTStartup@12     2003299e f   LIBC:dllcrt0.obj
 0001:00031a82       __amsg_exit                20032a82 f   LIBC:dllcrt0.obj
 0001:00031ab5       __ismbcspace               20032ab5 f   LIBC:ismbspc.obj
 0001:00031b50       __allmul                   20032b50 f   LIBC:llmul.obj
 0001:00031b84       __forcdecpt                20032b84 f   LIBC:cvt.obj
 0001:00031bdc       __cropzeros                20032bdc f   LIBC:cvt.obj
 0001:00031c27       __positive                 20032c27 f   LIBC:cvt.obj
 0001:00031c41       __fassign                  20032c41 f   LIBC:cvt.obj
 0001:00031c9c       __cftoe                    20032c9c f   LIBC:cvt.obj
 0001:00031d8d       __cftof                    20032d8d f   LIBC:cvt.obj
 0001:00031e6a       __cftog                    20032e6a f   LIBC:cvt.obj
 0001:00031f14       __cfltcvt                  20032f14 f   LIBC:cvt.obj
 0001:00031f65       __setdefaultprecision      20032f65 f   LIBC:fp8.obj
 0001:00031f77       __ms_p5_test_fdiv          20032f77 f   LIBC:testfdiv.obj
 0001:00031fb7       __ms_p5_mp_test_fdiv       20032fb7 f   LIBC:testfdiv.obj
 0001:00031fe0       __fltin                    20032fe0 f   LIBC:cfin.obj
 0001:00032080       _strlen                    20033080 f   LIBC:strlen.obj
 0001:0003210b       __isctype                  2003310b f   LIBC:isctype.obj
 0001:000321d1       __input                    200331d1 f   LIBC:input.obj
 0001:00033038       ___crtLCMapStringA         20034038 f   LIBC:a_map.obj
 0001:000333f4       __flsbuf                   200343f4 f   LIBC:_flsbuf.obj
 0001:00033598       __output                   20034598 f   LIBC:output.obj
 0001:00033d92       ___libm_error_support      20034d92 f   LIBC:libm_error.obj
 0001:00034053       ___sse2_available_init     20035053 f   LIBC:cpu_disp.obj
 0001:00034121       __ceil_default             20035121 f   LIBC:ceil.obj
 0001:000341f4       ___crtExitProcess          200351f4 f   LIBC:crt0dat.obj
 0001:00034224       __cinit                    20035224 f   LIBC:crt0dat.obj
 0001:0003434f       __exit                     2003534f f   LIBC:crt0dat.obj
 0001:00034360       __cexit                    20035360 f   LIBC:crt0dat.obj
 0001:0003436f       __ioinit                   2003536f f   LIBC:ioinit.obj
 0001:0003451a       __ioterm                   2003551a f   LIBC:ioinit.obj
 0001:0003453d       __setenvp                  2003553d f   LIBC:stdenvp.obj
 0001:00034770       __setargv                  20035770 f   LIBC:stdargv.obj
 0001:00034812       ___heap_select             20035812 f   LIBC:heapinit.obj
 0001:0003482c       __heap_init                2003582c f   LIBC:heapinit.obj
 0001:0003487d       __heap_term                2003587d f   LIBC:heapinit.obj
 0001:000348fc       ___crtGetEnvironmentStringsA 200358fc f   LIBC:a_env.obj
 0001:00034a1e       __RTC_Initialize           20035a1e f   LIBC:initsect.obj
 0001:00034a62       __RTC_Terminate            20035a62 f   LIBC:initsect.obj
 0001:00034aa6       __XcptFilter               20035aa6 f   LIBC:winxfltr.obj
 0001:00034c17       ___CppXcptFilter           20035c17 f   LIBC:winxfltr.obj
 0001:00034c32       _DllMain@12                20035c32 f   LIBC:dllmain.obj
 0001:00034c54       __SEH_prolog               20035c54 f   LIBC:sehprolg.obj
 0001:00034c8f       __SEH_epilog               20035c8f f   LIBC:sehprolg.obj
 0001:00034ca8       __except_handler3          20035ca8 f   LIBC:exsup3.obj
 0001:00034d8e       __seh_longjmp_unwind@4     20035d8e f   LIBC:exsup3.obj
 0001:00034da9       __NMSG_WRITE               20035da9 f   LIBC:crt0msg.obj
 0001:00034f20       __FF_MSGBANNER             20035f20 f   LIBC:crt0msg.obj
 0001:00034f59       ___crtGetStringTypeA       20035f59 f   LIBC:a_str.obj
 0001:000352f7       __setmbcp                  200362f7 f   LIBC:mbctype.obj
 0001:000354dd       ___initmbctable            200364dd f   LIBC:mbctype.obj
 0001:000354fb       __ZeroTail                 200364fb f   LIBC:intrncvt.obj
 0001:0003552d       __IncMan                   2003652d f   LIBC:intrncvt.obj
 0001:0003557a       __RoundMan                 2003657a f   LIBC:intrncvt.obj
 0001:000355ec       __CopyMan                  200365ec f   LIBC:intrncvt.obj
 0001:00035607       __IsZeroMan                20036607 f   LIBC:intrncvt.obj
 0001:00035620       __ShrMan                   20036620 f   LIBC:intrncvt.obj
 0001:0003569b       __ld12cvt                  2003669b f   LIBC:intrncvt.obj
 0001:000357f3       __ld12tod                  200367f3 f   LIBC:intrncvt.obj
 0001:00035809       __ld12tof                  20036809 f   LIBC:intrncvt.obj
 0001:0003581f       __atodbl                   2003681f f   LIBC:intrncvt.obj
 0001:0003585c       __atoflt                   2003685c f   LIBC:intrncvt.obj
 0001:000358a0       _strcpy                    200368a0 f   LIBC:strcat.obj
 0001:000358b0       _strcat                    200368b0 f   LIBC:strcat.obj
 0001:00035998       __fptostr                  20036998 f   LIBC:_fptostr.obj
 0001:00035a0f       ___dtold                   20036a0f f   LIBC:cfout.obj
 0001:00035ac9       __fltout                   20036ac9 f   LIBC:cfout.obj
 0001:00035b40       _memset                    20036b40 f   LIBC:memset.obj
 0001:00035ba0       __fptrap                   20036ba0 f   LIBC:crt0fp.obj
 0001:00035cc9       __control87                20036cc9 f   LIBC:ieee87.obj
 0001:00035cfb       __controlfp                20036cfb f   LIBC:ieee87.obj
 0001:00035d11       ___strgtold12              20036d11 f   LIBC:strgtold.obj
 0001:000361c9       @__security_check_cookie@4 200371c9 f   LIBC:secchk.obj
 0001:000361d7       __filbuf                   200371d7 f   LIBC:_filbuf.obj
 0001:000362b5       _ungetc                    200372b5 f   LIBC:ungetc.obj
 0001:00036321       _isspace                   20037321 f   LIBC:_ctype.obj
 0001:0003634a       _free                      2003734a f   LIBC:free.obj
 0001:00036382       _mbtowc                    20037382 f   LIBC:mbtowc.obj
 0001:0003644a       __heap_alloc               2003744a f   LIBC:malloc.obj
 0001:00036490       __nh_malloc                20037490 f   LIBC:malloc.obj
 0001:000364bc       _malloc                    200374bc f   LIBC:malloc.obj
 0001:000364ce       __resetstkoflw             200374ce f   LIBC:resetstk.obj
 0001:000365b1       ___ansicp                  200375b1 f   LIBC:convrtcp.obj
 0001:000365f4       ___convertcp               200375f4 f   LIBC:convrtcp.obj
 0001:000367bd       __lseek                    200377bd f   LIBC:lseek.obj
 0001:00036849       __write                    20037849 f   LIBC:write.obj
 0001:00036a39       __getbuf                   20037a39 f   LIBC:_getbuf.obj
 0001:00036a7d       __isatty                   20037a7d f   LIBC:isatty.obj
 0001:00036aa4       ___initstdio               20037aa4 f   LIBC:_file.obj
 0001:00036b4a       ___endstdio                20037b4a f   LIBC:_file.obj
 0001:00036b5e       _wctomb                    20037b5e f   LIBC:wctomb.obj
 0001:00036bd0       __aulldvrm                 20037bd0 f   LIBC:ulldvrm.obj
 0001:00036c65       __matherr                  20037c65 f   LIBC:matherr.obj
 0001:00036c70       _strncmp                   20037c70 f   LIBC:strncmp.obj
 0001:00036ca9       __raise_exc                20037ca9 f   LIBC:fpexcept.obj
 0001:00036f4e       __handle_exc               20037f4e f   LIBC:fpexcept.obj
 0001:00037172       __set_errno                20038172 f   LIBC:fpexcept.obj
 0001:00037198       __errcode                  20038198 f   LIBC:fpexcept.obj
 0001:000371c5       __umatherr                 200381c5 f   LIBC:fpexcept.obj
 0001:00037265       __handle_qnan1             20038265 f   LIBC:fpexcept.obj
 0001:000372b7       __except1                  200382b7 f   LIBC:fpexcept.obj
 0001:0003736f       __frnd                     2003836f f   LIBC:frnd.obj
 0001:00037380       __set_exp                  20038380 f   LIBC:util.obj
 0001:000373aa       __sptype                   200383aa f   LIBC:util.obj
 0001:00037405       __decomp                   20038405 f   LIBC:util.obj
 0001:000374c1       __statfp                   200384c1 f   LIBC:fpctrl.obj
 0001:000374cc       __clrfp                    200384cc f   LIBC:fpctrl.obj
 0001:000374d8       __ctrlfp                   200384d8 f   LIBC:fpctrl.obj
 0001:000374fc       __set_statfp               200384fc f   LIBC:fpctrl.obj
 0001:00037552       __onexit                   20038552 f   LIBC:onexit.obj
 0001:000375d4       _atexit                    200385d4 f   LIBC:onexit.obj
 0001:000375e6       ___onexitinit              200385e6 f   LIBC:onexit.obj
 0001:0003760e       ___sbh_heap_init           2003860e f   LIBC:sbheap.obj
 0001:00037656       ___sbh_find_block          20038656 f   LIBC:sbheap.obj
 0001:00037681       ___sbh_free_block          20038681 f   LIBC:sbheap.obj
 0001:00037999       ___sbh_alloc_new_region    20038999 f   LIBC:sbheap.obj
 0001:00037a50       ___sbh_alloc_new_group     20038a50 f   LIBC:sbheap.obj
 0001:00037b56       ___sbh_resize_block        20038b56 f   LIBC:sbheap.obj
 0001:00037e35       ___sbh_alloc_block         20038e35 f   LIBC:sbheap.obj
 0001:00038140       _memcpy                    20039140 f   LIBC:memcpy.obj
 0001:00038480       __global_unwind2           20039480 f   LIBC:exsup.obj
 0001:000384c2       __local_unwind2            200394c2 f   LIBC:exsup.obj
 0001:0003851a       __NLG_Return2              2003951a     LIBC:exsup.obj
 0001:0003852a       __abnormal_termination     2003952a f   LIBC:exsup.obj
 0001:0003854d       __NLG_Notify1              2003954d f   LIBC:exsup.obj
 0001:00038556       __NLG_Notify               20039556 f   LIBC:exsup.obj
 0001:00038569       __NLG_Dispatch             20039569     LIBC:exsup.obj
 0001:0003856e       __ValidateEH3RN            2003956e f   LIBC:eh3valid.obj
 0001:00038797       ___crtMessageBoxA          20039797 f   LIBC:crtmbox.obj
 0001:00038890       _calloc                    20039890 f   LIBC:calloc.obj
 0001:0003890b       ___addl                    2003990b f   LIBC:mantold.obj
 0001:0003892c       ___add_12                  2003992c f   LIBC:mantold.obj
 0001:0003898a       ___shl_12                  2003998a f   LIBC:mantold.obj
 0001:000389b8       ___shr_12                  200399b8 f   LIBC:mantold.obj
 0001:000389e5       ___mtold12                 200399e5 f   LIBC:mantold.obj
 0001:00038ac3       _$I10_OUTPUT               20039ac3 f   LIBC:x10fout.obj
 0001:00038d51       ___ld12mul                 20039d51 f   LIBC:tenpow.obj
 0001:00038f83       ___multtenpow12            20039f83 f   LIBC:tenpow.obj
 0001:00039009       ___security_init_cookie    2003a009 f   LIBC:seccinit.obj
 0001:0003906f       ___security_error_handler  2003a06f f   LIBC:secfail.obj
 0001:000391b7       __read                     2003a1b7 f   LIBC:read.obj
 0001:000393a5       __callnewh                 2003a3a5 f   LIBC:handler.obj
 0001:000393c0       __dosmaperr                2003a3c0 f   LIBC:dosmap.obj
 0001:0003941f       __free_osfhnd              2003a41f f   LIBC:osfinfo.obj
 0001:00039499       __get_osfhandle            2003a499 f   LIBC:osfinfo.obj
 0001:000394d5       __lseeki64                 2003a4d5 f   LIBC:lseeki64.obj
 0001:00039574       __fcloseall                2003a574 f   LIBC:closeall.obj
 0001:000395cc       __flush                    2003a5cc f   LIBC:fflush.obj
 0001:00039629       _fflush                    2003a629 f   LIBC:fflush.obj
 0001:000396d1       __flushall                 2003a6d1 f   LIBC:fflush.obj
 0001:000396da       _realloc                   2003a6da f   LIBC:realloc.obj
 0001:0003983c       __msize                    2003a83c f   LIBC:msize.obj
 0001:00039874       _fclose                    2003a874 f   LIBC:fclose.obj
 0001:000398ca       __commit                   2003a8ca f   LIBC:commit.obj
 0001:00039921       __close                    2003a921 f   LIBC:close.obj
 0001:000399d4       __freebuf                  2003a9d4 f   LIBC:_freebuf.obj
 0001:00039a00       _RtlUnwind@16              2003aa00 f   kernel32:KERNEL32.dll
 0002:00000000       __imp__GetCommandLineA@0   2003b000     kernel32:KERNEL32.dll
 0002:00000004       __imp__GetVersionExA@4     2003b004     kernel32:KERNEL32.dll
 0002:00000008       __imp__GetProcAddress@8    2003b008     kernel32:KERNEL32.dll
 0002:0000000c       __imp__GetModuleHandleA@4  2003b00c     kernel32:KERNEL32.dll
 0002:00000010       __imp__LCMapStringA@24     2003b010     kernel32:KERNEL32.dll
 0002:00000014       __imp__WideCharToMultiByte@32 2003b014     kernel32:KERNEL32.dll
 0002:00000018       __imp__MultiByteToWideChar@24 2003b018     kernel32:KERNEL32.dll
 0002:0000001c       __imp__GetLastError@0      2003b01c     kernel32:KERNEL32.dll
 0002:00000020       __imp__LCMapStringW@24     2003b020     kernel32:KERNEL32.dll
 0002:00000024       __imp__ExitProcess@4       2003b024     kernel32:KERNEL32.dll
 0002:00000028       __imp__TerminateProcess@8  2003b028     kernel32:KERNEL32.dll
 0002:0000002c       __imp__GetCurrentProcess@0 2003b02c     kernel32:KERNEL32.dll
 0002:00000030       __imp__SetHandleCount@4    2003b030     kernel32:KERNEL32.dll
 0002:00000034       __imp__GetStdHandle@4      2003b034     kernel32:KERNEL32.dll
 0002:00000038       __imp__GetFileType@4       2003b038     kernel32:KERNEL32.dll
 0002:0000003c       __imp__GetStartupInfoA@4   2003b03c     kernel32:KERNEL32.dll
 0002:00000040       __imp__GetModuleFileNameA@12 2003b040     kernel32:KERNEL32.dll
 0002:00000044       __imp__HeapDestroy@4       2003b044     kernel32:KERNEL32.dll
 0002:00000048       __imp__HeapCreate@12       2003b048     kernel32:KERNEL32.dll
 0002:0000004c       __imp__VirtualFree@12      2003b04c     kernel32:KERNEL32.dll
 0002:00000050       __imp__HeapFree@12         2003b050     kernel32:KERNEL32.dll
 0002:00000054       __imp__FreeEnvironmentStringsA@4 2003b054     kernel32:KERNEL32.dll
 0002:00000058       __imp__GetEnvironmentStrings@0 2003b058     kernel32:KERNEL32.dll
 0002:0000005c       __imp__FreeEnvironmentStringsW@4 2003b05c     kernel32:KERNEL32.dll
 0002:00000060       __imp__GetEnvironmentStringsW@0 2003b060     kernel32:KERNEL32.dll
 0002:00000064       __imp__UnhandledExceptionFilter@4 2003b064     kernel32:KERNEL32.dll
 0002:00000068       __imp__DisableThreadLibraryCalls@4 2003b068     kernel32:KERNEL32.dll
 0002:0000006c       __imp__WriteFile@20        2003b06c     kernel32:KERNEL32.dll
 0002:00000070       __imp__GetStringTypeA@20   2003b070     kernel32:KERNEL32.dll
 0002:00000074       __imp__GetStringTypeW@16   2003b074     kernel32:KERNEL32.dll
 0002:00000078       __imp__GetACP@0            2003b078     kernel32:KERNEL32.dll
 0002:0000007c       __imp__GetOEMCP@0          2003b07c     kernel32:KERNEL32.dll
 0002:00000080       __imp__GetCPInfo@8         2003b080     kernel32:KERNEL32.dll
 0002:00000084       __imp__HeapAlloc@12        2003b084     kernel32:KERNEL32.dll
 0002:00000088       __imp__VirtualProtect@16   2003b088     kernel32:KERNEL32.dll
 0002:0000008c       __imp__VirtualAlloc@16     2003b08c     kernel32:KERNEL32.dll
 0002:00000090       __imp__GetSystemInfo@4     2003b090     kernel32:KERNEL32.dll
 0002:00000094       __imp__VirtualQuery@12     2003b094     kernel32:KERNEL32.dll
 0002:00000098       __imp__GetLocaleInfoA@16   2003b098     kernel32:KERNEL32.dll
 0002:0000009c       __imp__SetFilePointer@16   2003b09c     kernel32:KERNEL32.dll
 0002:000000a0       __imp__RaiseException@16   2003b0a0     kernel32:KERNEL32.dll
 0002:000000a4       __imp__HeapReAlloc@16      2003b0a4     kernel32:KERNEL32.dll
 0002:000000a8       __imp__RtlUnwind@16        2003b0a8     kernel32:KERNEL32.dll
 0002:000000ac       __imp__InterlockedExchange@8 2003b0ac     kernel32:KERNEL32.dll
 0002:000000b0       __imp__LoadLibraryA@4      2003b0b0     kernel32:KERNEL32.dll
 0002:000000b4       __imp__QueryPerformanceCounter@4 2003b0b4     kernel32:KERNEL32.dll
 0002:000000b8       __imp__GetTickCount@0      2003b0b8     kernel32:KERNEL32.dll
 0002:000000bc       __imp__GetCurrentThreadId@0 2003b0bc     kernel32:KERNEL32.dll
 0002:000000c0       __imp__GetCurrentProcessId@0 2003b0c0     kernel32:KERNEL32.dll
 0002:000000c4       __imp__GetSystemTimeAsFileTime@4 2003b0c4     kernel32:KERNEL32.dll
 0002:000000c8       __imp__ReadFile@20         2003b0c8     kernel32:KERNEL32.dll
 0002:000000cc       __imp__SetStdHandle@8      2003b0cc     kernel32:KERNEL32.dll
 0002:000000d0       __imp__HeapSize@12         2003b0d0     kernel32:KERNEL32.dll
 0002:000000d4       __imp__FlushFileBuffers@4  2003b0d4     kernel32:KERNEL32.dll
 0002:000000d8       __imp__CloseHandle@4       2003b0d8     kernel32:KERNEL32.dll
 0002:000000dc       \177KERNEL32_NULL_THUNK_DATA 2003b0dc     kernel32:KERNEL32.dll
 0002:000000e0       ??_C@_01PFHFFBPC@t?$AA@    2003b0e0     ai_chat.obj
 0002:000000e4       ??_C@_01EFFIKLCJ@n?$AA@    2003b0e4     ai_chat.obj
 0002:000000e8       ??_C@_0O@OCOCOONB@sv_maxclients?$AA@ 2003b0e8     ai_chat.obj
 0002:000000f8       __real@38000100            2003b0f8     ai_chat.obj
 0002:000000fc       ??_C@_07KMNEBLH@mapname?$AA@ 2003b0fc     ai_chat.obj
 0002:00000104       ??_C@_0BB@FPHHFAJG@?$FLunknown?5weapon?$FN?$AA@ 2003b104     ai_chat.obj
 0002:00000118       ??_C@_07MKHABLGK@Grapple?$AA@ 2003b118     ai_chat.obj
 0002:00000120       ??_C@_06PNKEMFGD@BFG10K?$AA@ 2003b120     ai_chat.obj
 0002:00000128       ??_C@_0O@HOCKKNKE@Lightning?5Gun?$AA@ 2003b128     ai_chat.obj
 0002:00000138       ??_C@_07NMJDHEIK@Railgun?$AA@ 2003b138     ai_chat.obj
 0002:00000140       ??_C@_09MBHKGILD@Plasmagun?$AA@ 2003b140     ai_chat.obj
 0002:0000014c       ??_C@_0BA@DJIGCIDL@Rocket?5Launcher?$AA@ 2003b14c     ai_chat.obj
 0002:0000015c       ??_C@_0BB@GIEOMMBO@Grenade?5Launcher?$AA@ 2003b15c     ai_chat.obj
 0002:00000170       ??_C@_0L@KDNGMPND@Machinegun?$AA@ 2003b170     ai_chat.obj
 0002:0000017c       ??_C@_08ELAHAPJB@Gauntlet?$AA@ 2003b17c     ai_chat.obj
 0002:00000188       ??_C@_07DGIAOJJ@Shotgun?$AA@ 2003b188     ai_chat.obj
 0002:00000190       __real@4021cccccccccccd    2003b190     ai_chat.obj
 0002:00000198       __real@00000000            2003b198     ai_chat.obj
 0002:0000019c       __real@41200000            2003b19c     ai_chat.obj
 0002:000001a0       __real@3f800000            2003b1a0     ai_chat.obj
 0002:000001a4       __real@42000000            2003b1a4     ai_chat.obj
 0002:000001a8       __real@41c00000            2003b1a8     ai_chat.obj
 0002:000001ac       ??_C@_0L@PKHLIBCF@game_enter?$AA@ 2003b1ac     ai_chat.obj
 0002:000001b8       ??_C@_0O@IGAOFANI@?$FLinvalid?5var?$FN?$AA@ 2003b1b8     ai_chat.obj
 0002:000001c8       __real@41c80000            2003b1c8     ai_chat.obj
 0002:000001cc       ??_C@_09PIOCENHO@game_exit?$AA@ 2003b1cc     ai_chat.obj
 0002:000001d8       ??_C@_0M@CJNDJGDH@level_start?$AA@ 2003b1d8     ai_chat.obj
 0002:000001e4       ??_C@_06IMDBNOMM@vtaunt?$AA@ 2003b1e4     ai_chat.obj
 0002:000001ec       ??_C@_09PILOJEEK@level_end?$AA@ 2003b1ec     ai_chat.obj
 0002:000001f8       ??_C@_0P@LPKGAAGE@level_end_lose?$AA@ 2003b1f8     ai_chat.obj
 0002:00000208       ??_C@_0BC@GKFLFIDK@level_end_victory?$AA@ 2003b208     ai_chat.obj
 0002:0000021c       ??_C@_0O@EGKCFKBF@death_suicide?$AA@ 2003b21c     ai_chat.obj
 0002:0000022c       ??_C@_0N@INLGGPBP@death_praise?$AA@ 2003b22c     ai_chat.obj
 0002:0000023c       ??_C@_0N@EPKIJPHK@death_insult?$AA@ 2003b23c     ai_chat.obj
 0002:0000024c       ??_C@_09HPMGADCC@death_bfg?$AA@ 2003b24c     ai_chat.obj
 0002:00000258       ??_C@_0L@OLPOCBHN@death_rail?$AA@ 2003b258     ai_chat.obj
 0002:00000264       ??_C@_0P@GODBEIFH@death_gauntlet?$AA@ 2003b264     ai_chat.obj
 0002:00000278       __real@3fe0000000000000    2003b278     ai_chat.obj
 0002:00000280       ??_C@_0P@CLLHBMMH@death_telefrag?$AA@ 2003b280     ai_chat.obj
 0002:00000290       ??_C@_0P@FHLBDKHM@death_cratered?$AA@ 2003b290     ai_chat.obj
 0002:000002a0       ??_C@_0L@JGPKJCJO@death_lava?$AA@ 2003b2a0     ai_chat.obj
 0002:000002ac       ??_C@_0M@ENLBBGB@death_slime?$AA@ 2003b2ac     ai_chat.obj
 0002:000002b8       ??_C@_0M@BCPGKKBA@death_drown?$AA@ 2003b2b8     ai_chat.obj
 0002:000002c4       ??_C@_0P@LLJEDFBD@death_teammate?$AA@ 2003b2c4     ai_chat.obj
 0002:000002d4       ??_C@_07PANFCHNN@?$FLworld?$FN?$AA@ 2003b2d4     ai_chat.obj
 0002:000002dc       ??_C@_0M@NDKPNHB@kill_praise?$AA@ 2003b2dc     ai_chat.obj
 0002:000002e8       ??_C@_0M@MPCEANBE@kill_insult?$AA@ 2003b2e8     ai_chat.obj
 0002:000002f4       ??_C@_0O@MOMICIAK@kill_telefrag?$AA@ 2003b2f4     ai_chat.obj
 0002:00000304       ??_C@_09HNPOIBHL@kill_rail?$AA@ 2003b304     ai_chat.obj
 0002:00000310       ??_C@_0O@ILEOHMJK@kill_gauntlet?$AA@ 2003b310     ai_chat.obj
 0002:00000320       ??_C@_0O@FOOLABNO@kill_teammate?$AA@ 2003b320     ai_chat.obj
 0002:00000330       ??_C@_0O@CCLFCPCH@enemy_suicide?$AA@ 2003b330     ai_chat.obj
 0002:00000340       ??_C@_0M@GJHANCBL@hit_talking?$AA@ 2003b340     ai_chat.obj
 0002:0000034c       ??_C@_0M@NEMKKKCP@hit_nodeath?$AA@ 2003b34c     ai_chat.obj
 0002:00000358       ??_C@_0L@HALGAHGK@hit_nokill?$AA@ 2003b358     ai_chat.obj
 0002:00000364       ??_C@_0O@BCFFFDNI@random_insult?$AA@ 2003b364     ai_chat.obj
 0002:00000374       ??_C@_0M@DCDJELGA@random_misc?$AA@ 2003b374     ai_chat.obj
 0002:00000380       __real@3fd0000000000000    2003b380     ai_chat.obj
 0002:00000388       __real@3fb999999999999a    2003b388     ai_chat.obj
 0002:00000390       __real@40000000            2003b390     ai_chat.obj
 0002:00000398       __real@404e000000000000    2003b398     ai_cmd.obj
 0002:000003a0       __real@44e10000            2003b3a0     ai_cmd.obj
 0002:000003a4       __real@44160000            2003b3a4     ai_cmd.obj
 0002:000003a8       __real@4cbebc20            2003b3a8     ai_cmd.obj
 0002:000003ac       ??_C@_0CC@BCALNIDF@I?5need?5more?5key?5points?5to?5patrol@ 2003b3ac     ai_cmd.obj
 0002:000003d0       ??_C@_0BB@PGBIDPPC@what?5do?5you?5say?$DP?$AA@ 2003b3d0     ai_cmd.obj
 0002:000003e4       __real@42700000            2003b3e4     ai_cmd.obj
 0002:000003e8       ??_C@_0M@HCHCFBDA@whereareyou?$AA@ 2003b3e8     ai_cmd.obj
 0002:000003f4       ??_C@_07BANGEKHA@whereis?$AA@ 2003b3f4     ai_cmd.obj
 0002:000003fc       ??_C@_05NBAJGCGG@whois?$AA@ 2003b3fc     ai_cmd.obj
 0002:00000404       __real@42f00000            2003b404     ai_cmd.obj
 0002:00000408       ??_C@_03ICICOMAL@yes?$AA@  2003b408     ai_cmd.obj
 0002:0000040c       ??_C@_0L@CCGDOBMA@keepinmind?$AA@ 2003b40c     ai_cmd.obj
 0002:00000418       __real@43340000            2003b418     ai_cmd.obj
 0002:0000041c       ??_C@_0L@OAEJIBOJ@joinedteam?$AA@ 2003b41c     ai_cmd.obj
 0002:00000428       ??_C@_08NKJDPEPF@leftteam?$AA@ 2003b428     ai_cmd.obj
 0002:00000434       ??_C@_06NJFEFPHF@noteam?$AA@ 2003b434     ai_cmd.obj
 0002:0000043c       ??_C@_06NHKPLCFO@inteam?$AA@ 2003b43c     ai_cmd.obj
 0002:00000444       ??_C@_0BD@PGFNLHLB@checkpoint_confirm?$AA@ 2003b444     ai_cmd.obj
 0002:00000458       ??_C@_0BC@PAJMIFOG@?$CF1?40f?5?$CF1?40f?5?$CF1?40f?$AA@ 2003b458     ai_cmd.obj
 0002:0000046c       ??_C@_0BD@GKCAPLMB@checkpoint_invalid?$AA@ 2003b46c     ai_cmd.obj
 0002:00000480       ??_C@_08OEKJENGB@?$CFf?5?$CFf?5?$CFf?$AA@ 2003b480     ai_cmd.obj
 0002:0000048c       __real@42c80000            2003b48c     ai_cmd.obj
 0002:00000490       __real@43fa0000            2003b490     ai_cmd.obj
 0002:00000494       __real@42400000            2003b494     ai_cmd.obj
 0002:00000498       __real@4040000000000000    2003b498     ai_cmd.obj
 0002:000004a0       __real@402381d7dbf487fd    2003b4a0     ai_cmd.obj
 0002:000004a8       ??_C@_09FLIJNDLN@dismissed?$AA@ 2003b4a8     ai_cmd.obj
 0002:000004b4       ??_C@_05CPCHEFAA@taunt?$AA@ 2003b4b4     ai_cmd.obj
 0002:000004bc       ??_C@_04BJJEOANI@kill?$AA@ 2003b4bc     ai_cmd.obj
 0002:000004c4       ??_C@_0BF@EGOEAANC@I?8m?5the?5team?5leader?6?$AA@ 2003b4c4     ai_cmd.obj
 0002:000004dc       ??_C@_07IFIHEGLH@roaming?$AA@ 2003b4dc     ai_cmd.obj
 0002:000004e4       ??_C@_0O@PNEKPGNP@returningflag?$AA@ 2003b4e4     ai_cmd.obj
 0002:000004f4       ??_C@_0M@BGGCILAH@rushingbase?$AA@ 2003b4f4     ai_cmd.obj
 0002:00000500       ??_C@_0O@KMOOAPPA@capturingflag?$AA@ 2003b500     ai_cmd.obj
 0002:00000510       ??_C@_0L@GHJELNDI@patrolling?$AA@ 2003b510     ai_cmd.obj
 0002:0000051c       ??_C@_07IKBLJPBH@camping?$AA@ 2003b51c     ai_cmd.obj
 0002:00000524       ??_C@_07EFNGDOD@killing?$AA@ 2003b524     ai_cmd.obj
 0002:0000052c       ??_C@_0M@EEGCLMEK@gettingitem?$AA@ 2003b52c     ai_cmd.obj
 0002:00000538       ??_C@_09GNBACBHC@defending?$AA@ 2003b538     ai_cmd.obj
 0002:00000544       ??_C@_0N@FBKCFEPP@accompanying?$AA@ 2003b544     ai_cmd.obj
 0002:00000554       ??_C@_07OIGCHEPH@helping?$AA@ 2003b554     ai_cmd.obj
 0002:00000560       __real@3ff0000000000000    2003b560     ai_cmd.obj
 0002:00000568       ??_C@_08CBBFJFMD@location?$AA@ 2003b568     ai_cmd.obj
 0002:00000574       ??_C@_04OBGPFBCN@blue?$AA@ 2003b574     ai_cmd.obj
 0002:0000057c       ??_C@_0N@LHJHAMNN@teamlocation?$AA@ 2003b57c     ai_cmd.obj
 0002:0000058c       ??_C@_03FAAAOPJM@red?$AA@  2003b58c     ai_cmd.obj
 0002:00000590       __real@3fd999999999999a    2003b590     ai_cmd.obj
 0002:00000598       ??_C@_09MDBFHCAB@Blue?5Flag?$AA@ 2003b598     ai_cmd.obj
 0002:000005a4       ??_C@_08GAOGPIJL@Red?5Flag?$AA@ 2003b5a4     ai_cmd.obj
 0002:000005b0       ??_C@_0M@ICCAHGAD@Heavy?5Armor?$AA@ 2003b5b0     ai_cmd.obj
 0002:000005bc       ??_C@_05JOOFIMIN@Armor?$AA@ 2003b5bc     ai_cmd.obj
 0002:000005c4       ??_C@_06FDKFDAP@Flight?$AA@ 2003b5c4     ai_cmd.obj
 0002:000005cc       ??_C@_0N@LCCEENAK@Invisibility?$AA@ 2003b5cc     ai_cmd.obj
 0002:000005dc       ??_C@_05HOIAGEJD@Speed?$AA@ 2003b5dc     ai_cmd.obj
 0002:000005e4       ??_C@_0M@ONKEJEFE@Battle?5Suit?$AA@ 2003b5e4     ai_cmd.obj
 0002:000005f0       ??_C@_0N@CBPBLBHG@Regeneration?$AA@ 2003b5f0     ai_cmd.obj
 0002:00000600       ??_C@_0M@KOJLOALK@Quad?5Damage?$AA@ 2003b600     ai_cmd.obj
 0002:0000060c       ??_C@_0BE@NHGFGLLF@unknown?5match?5type?6?$AA@ 2003b60c     ai_cmd.obj
 0002:00000620       ??_C@_0DL@ENJHCNMJ@the?5part?5of?5my?5brain?5to?5create?5f@ 2003b620     ai_cmd.obj
 0002:0000065b       ??_C@_00CNPNBAHC@?$AA@     2003b65b     ai_dmnet.obj
 0002:0000065c       ??_C@_0CM@FBOPNIPA@?$CFs?5at?5?$CF1?41f?5switched?5more?5than?5?$CF@ 2003b65c     ai_dmnet.obj
 0002:00000688       ??_C@_0CE@EJLGIIOB@?$CFs?5at?5?$CF2?41f?5entered?5?$CFs?3?5?$CFs?5from?5@ 2003b688     ai_dmnet.obj
 0002:000006ac       __real@447a0000            2003b6ac     ai_dmnet.obj
 0002:000006b0       __real@40c00000            2003b6b0     ai_dmnet.obj
 0002:000006b4       __real@41a00000            2003b6b4     ai_dmnet.obj
 0002:000006b8       ??_C@_0N@INDGBJCC@onreturnflag?$AA@ 2003b6b8     ai_dmnet.obj
 0002:000006c8       ??_C@_0BB@BFOOKAAN@returnflag_start?$AA@ 2003b6c8     ai_dmnet.obj
 0002:000006dc       ??_C@_09DPAAIBFE@ongetflag?$AA@ 2003b6dc     ai_dmnet.obj
 0002:000006e8       ??_C@_0BC@BPHAAOLA@captureflag_start?$AA@ 2003b6e8     ai_dmnet.obj
 0002:000006fc       ??_C@_0M@JOFDEJLG@patrol_stop?$AA@ 2003b6fc     ai_dmnet.obj
 0002:00000708       ??_C@_0N@IKJEFKFP@patrol_start?$AA@ 2003b708     ai_dmnet.obj
 0002:00000718       ??_C@_04MKEOLIJC@?5to?5?$AA@ 2003b718     ai_dmnet.obj
 0002:00000720       ??_C@_0L@IJFFADDJ@inposition?$AA@ 2003b720     ai_dmnet.obj
 0002:0000072c       ??_C@_0M@PEOBAIFC@camp_arrive?$AA@ 2003b72c     ai_dmnet.obj
 0002:00000738       __real@45610000            2003b738     ai_dmnet.obj
 0002:0000073c       ??_C@_09BHIDKEB@camp_stop?$AA@ 2003b73c     ai_dmnet.obj
 0002:00000748       ??_C@_0L@KJNCBGJD@camp_start?$AA@ 2003b748     ai_dmnet.obj
 0002:00000754       ??_C@_0O@EJODLBHP@getitem_gotit?$AA@ 2003b754     ai_dmnet.obj
 0002:00000764       ??_C@_0BB@GOIMPKGP@getitem_notthere?$AA@ 2003b764     ai_dmnet.obj
 0002:00000778       ??_C@_0O@LBCALMFN@getitem_start?$AA@ 2003b778     ai_dmnet.obj
 0002:00000788       ??_C@_09KGAMDJKG@kill_done?$AA@ 2003b788     ai_dmnet.obj
 0002:00000794       ??_C@_0L@DMKJIHAF@kill_start?$AA@ 2003b794     ai_dmnet.obj
 0002:000007a0       __real@40400000            2003b7a0     ai_dmnet.obj
 0002:000007a4       __real@45992000            2003b7a4     ai_dmnet.obj
 0002:000007a8       ??_C@_0M@DFCLNMCD@defend_stop?$AA@ 2003b7a8     ai_dmnet.obj
 0002:000007b4       ??_C@_09DPKMICOA@ondefense?$AA@ 2003b7b4     ai_dmnet.obj
 0002:000007c0       ??_C@_0N@KFKEFAB@defend_start?$AA@ 2003b7c0     ai_dmnet.obj
 0002:000007d0       ??_C@_0BF@DCOBNKPB@accompany_cannotfind?$AA@ 2003b7d0     ai_dmnet.obj
 0002:000007e8       ??_C@_0BM@KDEEGPGK@BotLongTermGoal?3?5go?5for?5air?$AA@ 2003b7e8     ai_dmnet.obj
 0002:00000804       __real@41000000            2003b804     ai_dmnet.obj
 0002:00000808       __real@3fe999999999999a    2003b808     ai_dmnet.obj
 0002:00000810       __real@3fa999999999999a    2003b810     ai_dmnet.obj
 0002:00000818       ??_C@_0BB@FONGAGIJ@accompany_arrive?$AA@ 2003b818     ai_dmnet.obj
 0002:0000082c       __real@41700000            2003b82c     ai_dmnet.obj
 0002:00000830       __real@40a00000            2003b830     ai_dmnet.obj
 0002:00000838       __real@3fe6666666666666    2003b838     ai_dmnet.obj
 0002:00000840       __real@40800000            2003b840     ai_dmnet.obj
 0002:00000844       ??_C@_0P@JLGJIDCE@accompany_stop?$AA@ 2003b844     ai_dmnet.obj
 0002:00000854       ??_C@_0BA@JEJAJCPN@accompany_start?$AA@ 2003b854     ai_dmnet.obj
 0002:00000864       __real@461c4000            2003b864     ai_dmnet.obj
 0002:00000868       ??_C@_0L@JEGDCFOO@help_start?$AA@ 2003b868     ai_dmnet.obj
 0002:00000874       __real@48742400            2003b874     ai_dmnet.obj
 0002:00000878       ??_C@_08LJGLPHPA@followme?$AA@ 2003b878     ai_dmnet.obj
 0002:00000884       ??_C@_09GJKBJNFC@lead_stop?$AA@ 2003b884     ai_dmnet.obj
 0002:00000890       ??_C@_05PJLLPND@stand?$AA@ 2003b890     ai_dmnet.obj
 0002:00000898       ??_C@_0BI@BGMGILOO@observer?3?5left?5observer?$AA@ 2003b898     ai_dmnet.obj
 0002:000008b0       ??_C@_0BD@MNFAOLC@respawn?3?5respawned?$AA@ 2003b8b0     ai_dmnet.obj
 0002:000008c4       ??_C@_0N@JAICAHME@battle?5fight?$AA@ 2003b8c4     ai_dmnet.obj
 0002:000008d4       ??_C@_0L@EFLDDLAJ@battle?5NBG?$AA@ 2003b8d4     ai_dmnet.obj
 0002:000008e0       ??_C@_08BDAIAION@observer?$AA@ 2003b8e0     ai_dmnet.obj
 0002:000008ec       ??_C@_07PABIOCAD@respawn?$AA@ 2003b8ec     ai_dmnet.obj
 0002:000008f8       __real@3fd3333333333333    2003b8f8     ai_dmnet.obj
 0002:00000900       ??_C@_0BE@EEPGNAKO@battle?5retreat?3?5nbg?$AA@ 2003b900     ai_dmnet.obj
 0002:00000914       __real@3c23d70a            2003b914     ai_dmnet.obj
 0002:00000918       ??_C@_0BL@IFDBGGDM@battle?5retreat?3?5no?5way?5out?$AA@ 2003b918     ai_dmnet.obj
 0002:00000934       ??_C@_0BO@JHDCIIFI@battle?5retreat?3?5another?5enemy?$AA@ 2003b934     ai_dmnet.obj
 0002:00000954       ??_C@_0BL@KBIAJDEJ@battle?5retreat?3?5lost?5enemy?$AA@ 2003b954     ai_dmnet.obj
 0002:00000970       ??_C@_0N@JLOOIPJK@battle?5chase?$AA@ 2003b970     ai_dmnet.obj
 0002:00000980       ??_C@_0BP@PDKIMDBN@battle?5retreat?3?5wants?5to?5chase?$AA@ 2003b980     ai_dmnet.obj
 0002:000009a0       ??_C@_0BL@NMDPGNGL@battle?5retreat?3?5enemy?5dead?$AA@ 2003b9a0     ai_dmnet.obj
 0002:000009bc       ??_C@_0BJ@BKIHIJBD@battle?5retreat?3?5no?5enemy?$AA@ 2003b9bc     ai_dmnet.obj
 0002:000009d8       ??_C@_0BJ@MIHKKBKF@battle?5retreat?3?5bot?5dead?$AA@ 2003b9d8     ai_dmnet.obj
 0002:000009f4       ??_C@_0BN@IHDFIOBO@battle?5retreat?3?5intermission?$AA@ 2003b9f4     ai_dmnet.obj
 0002:00000a14       ??_C@_0BJ@IOJPHBCK@battle?5retreat?3?5observer?$AA@ 2003ba14     ai_dmnet.obj
 0002:00000a30       ??_C@_0P@ELFCJAMH@battle?5retreat?$AA@ 2003ba30     ai_dmnet.obj
 0002:00000a40       ??_C@_0BH@PKDGJGPO@battle?5chase?3?5time?5out?$AA@ 2003ba40     ai_dmnet.obj
 0002:00000a58       ??_C@_0BP@DMHFNNNL@battle?5chase?3?5wants?5to?5retreat?$AA@ 2003ba58     ai_dmnet.obj
 0002:00000a78       ??_C@_0BC@MBHDFOHG@battle?5chase?3?5nbg?$AA@ 2003ba78     ai_dmnet.obj
 0002:00000a90       __real@4030000000000000    2003ba90     ai_dmnet.obj
 0002:00000a98       ??_C@_0BM@JANANJEH@battle?5chase?3?5no?5enemy?5area?$AA@ 2003ba98     ai_dmnet.obj
 0002:00000ab4       ??_C@_0BL@BJLICKPC@battle?5chase?3?5better?5enemy?$AA@ 2003bab4     ai_dmnet.obj
 0002:00000ad0       ??_C@_0BH@PIOMJOG@battle?5chase?3?5no?5enemy?$AA@ 2003bad0     ai_dmnet.obj
 0002:00000ae8       ??_C@_0BH@NNHDOBFA@battle?5chase?3?5bot?5dead?$AA@ 2003bae8     ai_dmnet.obj
 0002:00000b00       ??_C@_0BL@PKAILKOJ@battle?5chase?3?5intermission?$AA@ 2003bb00     ai_dmnet.obj
 0002:00000b1c       ??_C@_0BH@JLJGDBNP@battle?5chase?3?5observer?$AA@ 2003bb1c     ai_dmnet.obj
 0002:00000b34       ??_C@_0BP@KNHNJPON@battle?5fight?3?5wants?5to?5retreat?$AA@ 2003bb34     ai_dmnet.obj
 0002:00000b54       ??_C@_0CB@IGGJLKOL@battle?5fight?3?5enemy?5out?5of?5sight@ 2003bb54     ai_dmnet.obj
 0002:00000b78       ??_C@_0BP@NBCPEGCG@battle?5fight?3?5chat?5hit?5someone?$AA@ 2003bb78     ai_dmnet.obj
 0002:00000b98       ??_C@_0CE@HNIMDJBG@battle?5fight?3?5chat?5health?5decrea@ 2003bb98     ai_dmnet.obj
 0002:00000bbc       ??_C@_0BI@PALDJFNB@battle?5fight?3?5invisible?$AA@ 2003bbbc     ai_dmnet.obj
 0002:00000bd8       __real@3fc999999999999a    2003bbd8     ai_dmnet.obj
 0002:00000be0       ??_C@_0BJ@JCMOALOB@battle?5fight?3?5enemy?5dead?$AA@ 2003bbe0     ai_dmnet.obj
 0002:00000bfc       ??_C@_0BH@PAJNDMEE@battle?5fight?3?5no?5enemy?$AA@ 2003bbfc     ai_dmnet.obj
 0002:00000c14       ??_C@_0BH@CCGABEPC@battle?5fight?3?5bot?5dead?$AA@ 2003bc14     ai_dmnet.obj
 0002:00000c2c       ??_C@_0BL@OCIIHEED@battle?5fight?3?5intermission?$AA@ 2003bc2c     ai_dmnet.obj
 0002:00000c48       ??_C@_0BH@GEIFMEHN@battle?5fight?3?5observer?$AA@ 2003bc48     ai_dmnet.obj
 0002:00000c60       ??_C@_0BG@LLBOBEHC@seek?5nbg?3?5found?5enemy?$AA@ 2003bc60     ai_dmnet.obj
 0002:00000c78       ??_C@_0BD@KKPPPHA@seek?5nbg?3?5time?5out?$AA@ 2003bc78     ai_dmnet.obj
 0002:00000c8c       ??_C@_0BD@CNOKIINO@seek?5nbg?3?5bot?5dead?$AA@ 2003bc8c     ai_dmnet.obj
 0002:00000ca0       ??_C@_0BG@FJPIPBDN@seek?5nbg?3?5intermision?$AA@ 2003bca0     ai_dmnet.obj
 0002:00000cb8       ??_C@_0BD@GLAPFIFB@seek?5nbg?3?5observer?$AA@ 2003bcb8     ai_dmnet.obj
 0002:00000ccc       ??_C@_07ONOEGCJB@no?5goal?$AA@ 2003bccc     ai_dmnet.obj
 0002:00000cd4       ??_C@_08IFECKGCD@seek?5NBG?$AA@ 2003bcd4     ai_dmnet.obj
 0002:00000ce0       __real@3f847ae147ae147b    2003bce0     ai_dmnet.obj
 0002:00000ce8       ??_C@_0O@OMHBKBBP@ltg?5seek?3?5nbg?$AA@ 2003bce8     ai_dmnet.obj
 0002:00000cf8       ??_C@_0BG@NKJENDMP@seek?5ltg?3?5found?5enemy?$AA@ 2003bcf8     ai_dmnet.obj
 0002:00000d10       ??_C@_0BG@FMPBNGLO@seek?5ltg?3?5random?5chat?$AA@ 2003bd10     ai_dmnet.obj
 0002:00000d28       ??_C@_0BD@NIGGDFHE@seek?5ltg?3?5bot?5dead?$AA@ 2003bd28     ai_dmnet.obj
 0002:00000d3c       ??_C@_0BH@BIAHANPH@seek?5ltg?3?5intermission?$AA@ 2003bd3c     ai_dmnet.obj
 0002:00000d54       ??_C@_0BD@JOIDOFPL@seek?5ltg?3?5observer?$AA@ 2003bd54     ai_dmnet.obj
 0002:00000d68       ??_C@_08DHOALBGK@seek?5LTG?$AA@ 2003bd68     ai_dmnet.obj
 0002:00000d74       ??_C@_0BA@EJJPLHJN@stand?3?5time?5out?$AA@ 2003bd74     ai_dmnet.obj
 0002:00000d84       ??_C@_0BD@EFNKCGD@stand?3?5found?5enemy?$AA@ 2003bd84     ai_dmnet.obj
 0002:00000d98       ??_C@_0BD@FAEFJCHC@intermission?3?5chat?$AA@ 2003bd98     ai_dmnet.obj
 0002:00000dac       ??_C@_0N@IHDBPIFK@intermission?$AA@ 2003bdac     ai_dmnet.obj
 0002:00000dbc       ??_C@_0BN@CHDNEHF@activate?5entity?3?5found?5enemy?$AA@ 2003bdbc     ai_dmnet.obj
 0002:00000ddc       ??_C@_0BL@KOANFMEA@activate?5entity?3?5activated?$AA@ 2003bddc     ai_dmnet.obj
 0002:00000df8       ??_C@_0BK@GBGNKJEG@activate?5entity?3?5time?5out?$AA@ 2003bdf8     ai_dmnet.obj
 0002:00000e14       ??_C@_0BJ@EEHKLOIJ@activate?5entity?3?5no?5goal?$AA@ 2003be14     ai_dmnet.obj
 0002:00000e30       ??_C@_0BK@EGCINOOI@activate?5entity?3?5bot?5dead?$AA@ 2003be30     ai_dmnet.obj
 0002:00000e4c       ??_C@_0BO@DDGLLAGC@activate?5entity?3?5intermission?$AA@ 2003be4c     ai_dmnet.obj
 0002:00000e6c       ??_C@_0BI@CFBHMKPG@active?5entity?3?5observer?$AA@ 2003be6c     ai_dmnet.obj
 0002:00000e84       ??_C@_0BF@JGNGECFP@battle?5nbg?3?5time?5out?$AA@ 2003be84     ai_dmnet.obj
 0002:00000e9c       ??_C@_0BH@PFIKNLIP@battle?5nbg?3?5enemy?5dead?$AA@ 2003be9c     ai_dmnet.obj
 0002:00000eb4       ??_C@_0BF@GDGOBNEH@battle?5nbg?3?5no?5enemy?$AA@ 2003beb4     ai_dmnet.obj
 0002:00000ecc       ??_C@_0BF@LBJDDFPB@battle?5nbg?3?5bot?5dead?$AA@ 2003becc     ai_dmnet.obj
 0002:00000ee4       ??_C@_0BJ@JPCFIHPK@battle?5nbg?3?5intermission?$AA@ 2003bee4     ai_dmnet.obj
 0002:00000f00       ??_C@_0BF@PHHGOFHO@battle?5nbg?3?5observer?$AA@ 2003bf00     ai_dmnet.obj
 0002:00000f18       ??_C@_0BA@OLIPHEKA@activate?5entity?$AA@ 2003bf18     ai_dmnet.obj
 0002:00000f28       ??_C@_02KAJCLHKP@no?$AA@   2003bf28     ai_dmq3.obj
 0002:00000f2c       ??_C@_0BG@EPIHOAD@?$FLclient?5out?5of?5range?$FN?$AA@ 2003bf2c     ai_dmq3.obj
 0002:00000f44       ??_C@_0CB@FEANAAEF@ClientName?3?5client?5out?5of?5range?6@ 2003bf44     ai_dmq3.obj
 0002:00000f68       ??_C@_05NCCFOPHA@model?$AA@ 2003bf68     ai_dmq3.obj
 0002:00000f70       ??_C@_01LBDDMOBJ@?$FN?$AA@ 2003bf70     ai_dmq3.obj
 0002:00000f74       ??_C@_01OHGJGJJP@?$FL?$AA@ 2003bf74     ai_dmq3.obj
 0002:00000f78       ??_C@_01CLKCMJKC@?5?$AA@   2003bf78     ai_dmq3.obj
 0002:00000f7c       __real@41b80000            2003bf7c     ai_dmq3.obj
 0002:00000f80       ??_C@_0CF@BEIOCA@BotCreateWayPoint?3?5Out?5of?5waypoi@ 2003bf80     ai_dmq3.obj
 0002:00000fa8       __real@42480000            2003bfa8     ai_dmq3.obj
 0002:00000fac       __real@42a00000            2003bfac     ai_dmq3.obj
 0002:00000fb0       __real@42aa0000            2003bfb0     ai_dmq3.obj
 0002:00000fb4       __real@42b40000            2003bfb4     ai_dmq3.obj
 0002:00000fb8       __real@42be0000            2003bfb8     ai_dmq3.obj
 0002:00000fbc       __real@428c0000            2003bfbc     ai_dmq3.obj
 0002:00000fc0       __real@47c34f80            2003bfc0     ai_dmq3.obj
 0002:00000fc8       __real@3fefae147ae147ae    2003bfc8     ai_dmq3.obj
 0002:00000fd0       __real@43960000            2003bfd0     ai_dmq3.obj
 0002:00000fd4       __real@42200000            2003bfd4     ai_dmq3.obj
 0002:00000fd8       __real@43480000            2003bfd8     ai_dmq3.obj
 0002:00000fe0       __real@4058000000000000    2003bfe0     ai_dmq3.obj
 0002:00000fe8       __real@3fe8000000000000    2003bfe8     ai_dmq3.obj
 0002:00000ff0       __real@44480000            2003bff0     ai_dmq3.obj
 0002:00000ff8       __real@3feccccccccccccd    2003bff8     ai_dmq3.obj
 0002:00001000       __real@3fedeb851eb851ec    2003c000     ai_dmq3.obj
 0002:00001008       __real@c066800000000000    2003c008     ai_dmq3.obj
 0002:00001010       __real@4076800000000000    2003c010     ai_dmq3.obj
 0002:00001018       __real@4066800000000000    2003c018     ai_dmq3.obj
 0002:00001020       __real@3fee666666666666    2003c020     ai_dmq3.obj
 0002:00001028       __real@3f50624dd2f1a9fc    2003c028     ai_dmq3.obj
 0002:00001030       __real@390fd66c            2003c030     ai_dmq3.obj
 0002:00001034       __real@49202e40            2003c034     ai_dmq3.obj
 0002:00001038       __real@408c200000000000    2003c038     ai_dmq3.obj
 0002:00001040       __real@40af400000000000    2003c040     ai_dmq3.obj
 0002:00001048       __real@43b40000            2003c048     ai_dmq3.obj
 0002:0000104c       __real@3bda740e            2003c04c     ai_dmq3.obj
 0002:00001050       __real@43160000            2003c050     ai_dmq3.obj
 0002:00001054       __real@45c80000            2003c054     ai_dmq3.obj
 0002:00001058       __real@4024000000000000    2003c058     ai_dmq3.obj
 0002:00001060       __real@4034000000000000    2003c060     ai_dmq3.obj
 0002:00001068       __real@4049000000000000    2003c068     ai_dmq3.obj
 0002:00001070       __real@42800000            2003c070     ai_dmq3.obj
 0002:00001078       __real@3fe3333333333333    2003c078     ai_dmq3.obj
 0002:00001080       __real@44800000            2003c080     ai_dmq3.obj
 0002:00001084       __real@41800000            2003c084     ai_dmq3.obj
 0002:00001088       __real@3f333333            2003c088     ai_dmq3.obj
 0002:0000108c       __real@45100000            2003c08c     ai_dmq3.obj
 0002:00001090       __real@3ecccccd            2003c090     ai_dmq3.obj
 0002:00001098       __real@407f400000000000    2003c098     ai_dmq3.obj
 0002:000010a0       __real@41400000            2003c0a0     ai_dmq3.obj
 0002:000010a4       ??_C@_0N@IFIOEJJO@mpq3tourney6?$AA@ 2003c0a4     ai_dmq3.obj
 0002:000010b8       __real@4020000000000000    2003c0b8     ai_dmq3.obj
 0002:000010c0       __real@44660000            2003c0c0     ai_dmq3.obj
 0002:000010c4       __real@43b00000            2003c0c4     ai_dmq3.obj
 0002:000010c8       __real@43980000            2003c0c8     ai_dmq3.obj
 0002:000010cc       __real@44280000            2003c0cc     ai_dmq3.obj
 0002:000010d0       __real@43ea0000            2003c0d0     ai_dmq3.obj
 0002:000010d4       __real@434c0000            2003c0d4     ai_dmq3.obj
 0002:000010d8       __real@44710000            2003c0d8     ai_dmq3.obj
 0002:000010dc       __real@442f0000            2003c0dc     ai_dmq3.obj
 0002:000010e0       ??_C@_0L@IMOIIFCE@q3tourney6?$AA@ 2003c0e0     ai_dmq3.obj
 0002:000010f0       __real@bff0000000000000    2003c0f0     ai_dmq3.obj
 0002:000010f8       __real@44000000            2003c0f8     ai_dmq3.obj
 0002:000010fc       ??_C@_06KJINILIP@health?$AA@ 2003c0fc     ai_dmq3.obj
 0002:00001104       ??_C@_05FECBCJJD@angle?$AA@ 2003c104     ai_dmq3.obj
 0002:0000110c       ??_C@_03MHHCOBAB@lip?$AA@  2003c10c     ai_dmq3.obj
 0002:00001110       __real@461c3c00            2003c110     ai_dmq3.obj
 0002:00001114       ??_C@_0N@EDJICHIO@target_delay?$AA@ 2003c114     ai_dmq3.obj
 0002:00001124       ??_C@_0N@JGBHMGAI@target_relay?$AA@ 2003c124     ai_dmq3.obj
 0002:00001134       ??_C@_0L@LNOJFPAO@func_timer?$AA@ 2003c134     ai_dmq3.obj
 0002:00001140       ??_C@_0BB@LKHFHPEP@trigger_multiple?$AA@ 2003c140     ai_dmq3.obj
 0002:00001158       __real@4014000000000000    2003c158     ai_dmq3.obj
 0002:00001160       ??_C@_0DO@JNGNHOKO@BotGetActivateGoal?3?5entity?5with?5@ 2003c160     ai_dmq3.obj
 0002:000011a0       ??_C@_0DA@LAOMJDKC@BotGetActivateGoal?3?5no?5entity?5wi@ 2003c1a0     ai_dmq3.obj
 0002:000011d0       ??_C@_06JJLAMBGK@target?$AA@ 2003c1d0     ai_dmq3.obj
 0002:000011d8       ??_C@_0DO@HIKLPKA@BotGetActivateGoal?3?5entity?5with?5@ 2003c1d8     ai_dmq3.obj
 0002:00001218       ??_C@_0L@FEPNPAJD@targetname?$AA@ 2003c218     ai_dmq3.obj
 0002:00001224       ??_C@_0M@PNMKBMEP@func_button?$AA@ 2003c224     ai_dmq3.obj
 0002:00001230       ??_C@_06NHCMNMEH@origin?$AA@ 2003c230     ai_dmq3.obj
 0002:00001238       ??_C@_0L@HLIKNEFC@spawnflags?$AA@ 2003c238     ai_dmq3.obj
 0002:00001244       ??_C@_09KJCKJKEG@func_door?$AA@ 2003c244     ai_dmq3.obj
 0002:00001250       ??_C@_09CNJINBGN@classname?$AA@ 2003c250     ai_dmq3.obj
 0002:0000125c       ??_C@_0DD@KCKJBPAH@BotGetActivateGoal?3?5no?5entity?5fo@ 2003c25c     ai_dmq3.obj
 0002:00001290       ??_C@_03COCDEFBB@?$CK?$CFd?$AA@ 2003c290     ai_dmq3.obj
 0002:00001294       ??_C@_0BF@GIIMEEEB@BotGoForActivateGoal?$AA@ 2003c294     ai_dmq3.obj
 0002:000012ac       ??_C@_0CE@HJEADBFH@BotCheckConsoleMessages?3?5reply?5c@ 2003c2ac     ai_dmq3.obj
 0002:000012d0       __real@3ff8000000000000    2003c2d0     ai_dmq3.obj
 0002:000012d8       ??_C@_0BK@IPGPBJPO@?$CK?$CK?$CK?$CK?5no?5valid?5reply?5?$CK?$CK?$CK?$CK?6?$AA@ 2003c2d8     ai_dmq3.obj
 0002:000012f4       ??_C@_0BK@ICOBFDNE@?9?9?9?9?9?9?9?9?9?9?9?9?9?9?9?9?9?9?9?9?9?9?9?9?6?$AA@ 2003c2f4     ai_dmq3.obj
 0002:00001310       ??_C@_0O@BBHMLBKC@bot_testrchat?$AA@ 2003c310     ai_dmq3.obj
 0002:00001320       ??_C@_01HIHLOKLC@1?$AA@    2003c320     ai_dmq3.obj
 0002:00001324       ??_C@_0CP@JEHKHMIG@EV_GENERAL_SOUND?3?5eventParm?5?$CI?$CFd?$CJ@ 2003c324     ai_dmq3.obj
 0002:00001354       ??_C@_0O@LBBMLEKM@?$CKfalling1?4wav?$AA@ 2003c354     ai_dmq3.obj
 0002:00001364       ??_C@_0CO@MPBFDNLO@EV_GLOBAL_SOUND?3?5eventParm?5?$CI?$CFd?$CJ?5@ 2003c364     ai_dmq3.obj
 0002:00001394       ??_C@_0BP@NBLBCCPC@sound?1items?1poweruprespawn?4wav?$AA@ 2003c394     ai_dmq3.obj
 0002:000013b4       ??_C@_0CB@MGIHMDHM@BotDeathmatchAI?3?5chat?5enter?5game@ 2003c3b4     ai_dmq3.obj
 0002:000013d8       ??_C@_0BM@EKLHMNBH@BotDeathmatchAI?3?5no?5ai?5node?$AA@ 2003c3d8     ai_dmq3.obj
 0002:000013f4       ??_C@_07FDOFLCLN@team?5?$CFs?$AA@ 2003c3f4     ai_dmq3.obj
 0002:000013fc       ??_C@_03OMLNFKE@sex?$AA@   2003c3fc     ai_dmq3.obj
 0002:00001400       ??_C@_0BH@KKMLANHJ@CTF?5without?5Blue?5Flag?6?$AA@ 2003c400     ai_dmq3.obj
 0002:00001418       ??_C@_0BG@HPNDPJMP@CTF?5without?5Red?5Flag?6?$AA@ 2003c418     ai_dmq3.obj
 0002:00001430       ??_C@_09OGEBNCBM@g_spSkill?$AA@ 2003c430     ai_dmq3.obj
 0002:0000143c       ??_C@_01FDFGLJHB@2?$AA@    2003c43c     ai_dmq3.obj
 0002:00001440       ??_C@_0BF@JHNEDFAH@bot_predictobstacles?$AA@ 2003c440     ai_dmq3.obj
 0002:00001458       ??_C@_0O@ILENLOKO@bot_challenge?$AA@ 2003c458     ai_dmq3.obj
 0002:00001468       ??_C@_0L@JNAIAIAH@bot_nochat?$AA@ 2003c468     ai_dmq3.obj
 0002:00001474       ??_C@_0N@JOELMLFL@bot_fastchat?$AA@ 2003c474     ai_dmq3.obj
 0002:00001484       ??_C@_0M@HIPNFLBG@bot_grapple?$AA@ 2003c484     ai_dmq3.obj
 0002:00001490       ??_C@_01GBGANLPD@0?$AA@    2003c490     ai_dmq3.obj
 0002:00001494       ??_C@_0P@OLNMGHML@bot_rocketjump?$AA@ 2003c494     ai_dmq3.obj
 0002:000014a4       ??_C@_0L@GFINLBEC@g_gametype?$AA@ 2003c4a4     ai_dmq3.obj
 0002:000014b0       ??_C@_08EAEOGCCG@onfollow?$AA@ 2003c4b0     ai_dmq3.obj
 0002:000014bc       ??_C@_09BJNHNGHD@ihaveflag?$AA@ 2003c4bc     ai_dmq3.obj
 0002:000014c8       ??_C@_08OKGPDOIO@teamtask?$AA@ 2003c4c8     ai_dmq3.obj
 0002:000014d4       ??_C@_02DPKJAMEF@?$CFd?$AA@ 2003c4d4     ai_dmq3.obj
 0002:000014d8       __real@43000000            2003c4d8     ai_dmq3.obj
 0002:000014dc       __real@4479c000            2003c4dc     ai_dmq3.obj
 0002:000014e0       ??_C@_0BE@HKMNOMAG@unknown?5print?5type?6?$AA@ 2003c4e0     ai_main.obj
 0002:000014f4       ??_C@_0L@CNJLHKJM@?$FO1Exit?3?5?$CFs?$AA@ 2003c4f4     ai_main.obj
 0002:00001500       ??_C@_0M@GLOCHAGD@?$FO1Fatal?3?5?$CFs?$AA@ 2003c500     ai_main.obj
 0002:0000150c       ??_C@_0M@LKBEKEOF@?$FO1Error?3?5?$CFs?$AA@ 2003c50c     ai_main.obj
 0002:00001518       ??_C@_0O@LHCIHOMB@?$FO3Warning?3?5?$CFs?$AA@ 2003c518     ai_main.obj
 0002:00001528       ??_C@_02DKCKIIND@?$CFs?$AA@ 2003c528     ai_main.obj
 0002:0000152c       ??_C@_02KNHHEEKP@?5?5?$AA@ 2003c52c     ai_main.obj
 0002:00001530       ??_C@_01OCOKONAJ@L?$AA@    2003c530     ai_main.obj
 0002:00001534       ??_C@_0P@LMJINGO@l?2?$CFs?2c?2?$CFs?2a?2?$CFs?$AA@ 2003c534     ai_main.obj
 0002:00001544       ??_C@_0L@IPEIBHBA@roaming?5?$CFs?$AA@ 2003c544     ai_main.obj
 0002:00001550       ??_C@_0L@ICJBNMIF@harvesting?$AA@ 2003c550     ai_main.obj
 0002:0000155c       ??_C@_0BJ@PEPADENJ@attacking?5the?5enemy?5base?$AA@ 2003c55c     ai_main.obj
 0002:00001578       ??_C@_0P@FJHLCNGM@returning?5flag?$AA@ 2003c578     ai_main.obj
 0002:00001588       ??_C@_0N@GBHDPJKL@rushing?5base?$AA@ 2003c588     ai_main.obj
 0002:00001598       ??_C@_0P@PCPLLEMM@capturing?5flag?$AA@ 2003c598     ai_main.obj
 0002:000015a8       ??_C@_0L@GKAIHKNA@killing?5?$CFs?$AA@ 2003c5a8     ai_main.obj
 0002:000015b4       ??_C@_0BA@FNOGAFMM@getting?5item?5?$CFs?$AA@ 2003c5b4     ai_main.obj
 0002:000015c4       ??_C@_0N@FMPLLINE@defending?5?$CFs?$AA@ 2003c5c4     ai_main.obj
 0002:000015d4       ??_C@_0BA@MCDBGPCI@accompanying?5?$CFs?$AA@ 2003c5d4     ai_main.obj
 0002:000015e4       ??_C@_0L@MCMCNIDL@helping?5?$CFs?$AA@ 2003c5e4     ai_main.obj
 0002:000015f0       ??_C@_02OBCNPDDN@F?5?$AA@  2003c5f0     ai_main.obj
 0002:000015f4       __real@bf800000            2003c5f4     ai_main.obj
 0002:000015f8       ??_C@_0BE@IDNEOHBL@bot_interbreedwrite?$AA@ 2003c5f8     ai_main.obj
 0002:00001610       __real@3fdccccccccccccd    2003c610     ai_main.obj
 0002:00001618       __real@c3340000            2003c618     ai_main.obj
 0002:0000161c       __real@43700000            2003c61c     ai_main.obj
 0002:00001620       __real@3ea28f5c            2003c620     ai_main.obj
 0002:00001624       __real@43360b61            2003c624     ai_main.obj
 0002:00001628       __real@3a83126f            2003c628     ai_main.obj
 0002:00001630       __real@3f76800000000000    2003c630     ai_main.obj
 0002:00001638       ??_C@_0BP@MGBLPCKB@BotAI?3?5client?5?$CFd?5is?5not?5setup?6?$AA@ 2003c638     ai_main.obj
 0002:00001658       ??_C@_0BA@GNMFKLDC@clientLevelShot?$AA@ 2003c658     ai_main.obj
 0002:00001668       ??_C@_06KBCJDMLG@scores?$AA@ 2003c668     ai_main.obj
 0002:00001670       ??_C@_05PMMINOBP@tchat?$AA@ 2003c670     ai_main.obj
 0002:00001678       ??_C@_04BLJLMHHG@chat?$AA@ 2003c678     ai_main.obj
 0002:00001680       ??_C@_05IJDJACGD@print?$AA@ 2003c680     ai_main.obj
 0002:00001688       ??_C@_02EODNHJKB@cs?$AA@   2003c688     ai_main.obj
 0002:0000168c       ??_C@_03DGFNDEPM@cp?5?$AA@ 2003c68c     ai_main.obj
 0002:00001690       ??_C@_0N@BLBFMIAO@botsession?$CFi?$AA@ 2003c690     ai_main.obj
 0002:000016a0       ??_C@_0DD@CAOHNHKP@?$CFi?5?$CFi?5?$CFi?5?$CFi?5?$CFi?5?$CFi?5?$CFi?5?$CFi?5?$CFf?5?$CFf?5?$CFf@ 2003c6a0     ai_main.obj
 0002:000016d4       ??_C@_05ECKEHJKK@cddir?$AA@ 2003c6d4     ai_main.obj
 0002:000016dc       ??_C@_09CIALLHHK@fs_cdpath?$AA@ 2003c6dc     ai_main.obj
 0002:000016e8       ??_C@_07GGMBKBFD@gamedir?$AA@ 2003c6e8     ai_main.obj
 0002:000016f0       ??_C@_07FMAMAFJE@fs_game?$AA@ 2003c6f0     ai_main.obj
 0002:000016f8       ??_C@_07BHPNMMNM@basedir?$AA@ 2003c6f8     ai_main.obj
 0002:00001700       ??_C@_0M@DGDBFJN@fs_basepath?$AA@ 2003c700     ai_main.obj
 0002:0000170c       ??_C@_0BF@BBFOCAKO@bot_reloadcharacters?$AA@ 2003c70c     ai_main.obj
 0002:00001724       ??_C@_0BB@GMCJAANP@saveroutingcache?$AA@ 2003c724     ai_main.obj
 0002:00001738       ??_C@_0BF@MDEDPJEF@bot_saveroutingcache?$AA@ 2003c738     ai_main.obj
 0002:00001750       ??_C@_0M@MFMPGCMK@aasoptimize?$AA@ 2003c750     ai_main.obj
 0002:0000175c       ??_C@_0BA@CHMPBPHA@bot_aasoptimize?$AA@ 2003c75c     ai_main.obj
 0002:0000176c       ??_C@_0L@MNCDALON@forcewrite?$AA@ 2003c76c     ai_main.obj
 0002:00001778       ??_C@_0P@HFCEKFCE@bot_forcewrite?$AA@ 2003c778     ai_main.obj
 0002:00001788       ??_C@_0BC@HJNNPMHF@forcereachability?$AA@ 2003c788     ai_main.obj
 0002:0000179c       ??_C@_0BG@GJKIOMNG@bot_forcereachability?$AA@ 2003c79c     ai_main.obj
 0002:000017b4       ??_C@_0BA@BADKHCEE@forceclustering?$AA@ 2003c7b4     ai_main.obj
 0002:000017c4       ??_C@_0BE@HANIKEON@bot_forceclustering?$AA@ 2003c7c4     ai_main.obj
 0002:000017d8       ??_C@_0BG@HILKKLKJ@bot_visualizejumppads?$AA@ 2003c7d8     ai_main.obj
 0002:000017f0       ??_C@_06GCPOGFCC@nochat?$AA@ 2003c7f0     ai_main.obj
 0002:000017f8       ??_C@_03MGHMBJCF@log?$AA@  2003c7f8     ai_main.obj
 0002:000017fc       ??_C@_0O@IHEJFHJE@bot_developer?$AA@ 2003c7fc     ai_main.obj
 0002:0000180c       ??_C@_0P@HIDOFLAM@max_levelitems?$AA@ 2003c80c     ai_main.obj
 0002:0000181c       ??_C@_0N@PMPJOGOE@max_aaslinks?$AA@ 2003c81c     ai_main.obj
 0002:0000182c       ??_C@_0P@HEEKJLPJ@sv_mapChecksum?$AA@ 2003c82c     ai_main.obj
 0002:0000183c       ??_C@_0M@KCCINJFC@maxentities?$AA@ 2003c83c     ai_main.obj
 0002:00001848       ??_C@_0L@JKCONGEA@maxclients?$AA@ 2003c848     ai_main.obj
 0002:00001854       ??_C@_0BE@BBMLIECL@bot_interbreedcycle?$AA@ 2003c854     ai_main.obj
 0002:00001868       ??_C@_02PIBHCBOA@20?$AA@   2003c868     ai_main.obj
 0002:0000186c       ??_C@_0BD@GLHGHIJE@bot_interbreedbots?$AA@ 2003c86c     ai_main.obj
 0002:00001880       ??_C@_02PKFBJPLJ@10?$AA@   2003c880     ai_main.obj
 0002:00001884       ??_C@_0BD@MIDHDJEH@bot_interbreedchar?$AA@ 2003c884     ai_main.obj
 0002:00001898       ??_C@_0BB@LICKAML@bot_testclusters?$AA@ 2003c898     ai_main.obj
 0002:000018ac       ??_C@_0O@NEGDFLLI@bot_testsolid?$AA@ 2003c8ac     ai_main.obj
 0002:000018bc       ??_C@_0L@DIBKBFBJ@bot_report?$AA@ 2003c8bc     ai_main.obj
 0002:000018c8       ??_C@_09KJGEBPM@bot_pause?$AA@ 2003c8c8     ai_main.obj
 0002:000018d4       ??_C@_0P@CMKPBNJI@bot_memorydump?$AA@ 2003c8d4     ai_main.obj
 0002:000018e4       ??_C@_0O@NKIABNEG@bot_thinktime?$AA@ 2003c8e4     ai_main.obj
 0002:000018f4       ??_C@_03GNABGMEE@100?$AA@  2003c8f4     ai_main.obj
 0002:000018f8       ??_C@_0BK@CCAPHDJA@addbot?5?$CFs?54?5free?5?$CFi?5?$CFs?$CFd?6?$AA@ 2003c8f8     ai_main.obj
 0002:00001914       ??_C@_03HPLEMDKK@200?$AA@  2003c914     ai_main.obj
 0002:00001918       ??_C@_0L@JEKILDFB@memorydump?$AA@ 2003c918     ai_main.obj
 0002:00001924       ??_C@_0M@CFKBBDNA@?$BJ?$CI?$CFs?$BJ?$CJ?$BJ?3?5?$CFs?$AA@ 2003c924     ai_team.obj
 0002:00001930       ??_C@_0M@KCHJGFOM@cmd_getflag?$AA@ 2003c930     ai_team.obj
 0002:0000193c       ??_C@_0O@FNPCOJLM@cmd_accompany?$AA@ 2003c93c     ai_team.obj
 0002:0000194c       ??_C@_0BA@MJCDCBAL@cmd_accompanyme?$AA@ 2003c94c     ai_team.obj
 0002:0000195c       ??_C@_0P@MGOFKCGO@cmd_defendbase?$AA@ 2003c95c     ai_team.obj
 0002:0000196c       ??_C@_0O@EHLIMCMK@iamteamleader?$AA@ 2003c96c     ai_team.obj
 0002:0000197c       ??_C@_0BA@JCHIJEGJ@whoisteamleader?$AA@ 2003c97c     ai_team.obj
 0002:0000198c       ??_C@_0O@LCEABBKD@wantonoffense?$AA@ 2003c98c     ai_vcmd.obj
 0002:0000199c       ??_C@_0O@NOMCBHGI@wantondefense?$AA@ 2003c99c     ai_vcmd.obj
 0002:000019ac       ??_C@_0M@JLDAEMIJ@whoisleader?$AA@ 2003c9ac     ai_vcmd.obj
 0002:000019b8       ??_C@_0L@HELMBEII@stopleader?$AA@ 2003c9b8     ai_vcmd.obj
 0002:000019c4       ??_C@_0M@GEDMEPM@startleader?$AA@ 2003c9c4     ai_vcmd.obj
 0002:000019d0       ??_C@_0L@BCFFODB@returnflag?$AA@ 2003c9d0     ai_vcmd.obj
 0002:000019dc       ??_C@_0BC@HILCMIJJ@followflagcarrier?$AA@ 2003c9dc     ai_vcmd.obj
 0002:000019f0       ??_C@_04LOFLEJM@camp?$AA@  2003c9f0     ai_vcmd.obj
 0002:000019f8       ??_C@_06KPEKKPL@patrol?$AA@ 2003c9f8     ai_vcmd.obj
 0002:00001a00       ??_C@_0L@LIAONOLJ@defendflag?$AA@ 2003ca00     ai_vcmd.obj
 0002:00001a0c       ??_C@_06BMABBLML@defend?$AA@ 2003ca0c     ai_vcmd.obj
 0002:00001a14       ??_C@_07GBMLDGPP@offense?$AA@ 2003ca14     ai_vcmd.obj
 0002:00001a1c       ??_C@_07NOFDDIA@getflag?$AA@ 2003ca1c     ai_vcmd.obj
 0002:00001a24       ??_C@_08DHCKJNNH@onpatrol?$AA@ 2003ca24     ai_vcmd.obj
 0002:00001a30       ??_C@_08GBKLDCBE@EV_TAUNT?$AA@ 2003ca30     bg_misc.obj
 0002:00001a3c       ??_C@_0BE@OHJHDFJH@EV_STOPLOOPINGSOUND?$AA@ 2003ca3c     bg_misc.obj
 0002:00001a50       ??_C@_0O@PBPAKHP@EV_DEBUG_LINE?$AA@ 2003ca50     bg_misc.obj
 0002:00001a60       ??_C@_0BB@HHACOGHI@EV_LIGHTNINGBOLT?$AA@ 2003ca60     bg_misc.obj
 0002:00001a74       ??_C@_09GLJGDJEJ@EV_JUICED?$AA@ 2003ca74     bg_misc.obj
 0002:00001a80       ??_C@_0BA@NHKGBGBA@EV_INVUL_IMPACT?$AA@ 2003ca80     bg_misc.obj
 0002:00001a90       ??_C@_0BC@LMKNBBLF@EV_OBELISKEXPLODE?$AA@ 2003ca90     bg_misc.obj
 0002:00001aa4       ??_C@_0M@KACLGFEA@EV_KAMIKAZE?$AA@ 2003caa4     bg_misc.obj
 0002:00001ab0       ??_C@_0BK@PIFCIJEJ@EV_PROXIMITY_MINE_TRIGGER?$AA@ 2003cab0     bg_misc.obj
 0002:00001acc       ??_C@_0BI@KNJAKDGK@EV_PROXIMITY_MINE_STICK?$AA@ 2003cacc     bg_misc.obj
 0002:00001ae4       ??_C@_0N@GAJBP@EV_SCOREPLUM?$AA@ 2003cae4     bg_misc.obj
 0002:00001af4       ??_C@_0O@JLGFLKBE@EV_GIB_PLAYER?$AA@ 2003caf4     bg_misc.obj
 0002:00001b04       ??_C@_0BB@EGIJIDAN@EV_POWERUP_REGEN?$AA@ 2003cb04     bg_misc.obj
 0002:00001b18       ??_C@_0BG@CHAMNADK@EV_POWERUP_BATTLESUIT?$AA@ 2003cb18     bg_misc.obj
 0002:00001b30       ??_C@_0BA@HLHGHIIE@EV_POWERUP_QUAD?$AA@ 2003cb30     bg_misc.obj
 0002:00001b40       ??_C@_0M@PPLCDPP@EV_OBITUARY?$AA@ 2003cb40     bg_misc.obj
 0002:00001b4c       ??_C@_09KNGHBIAK@EV_DEATH3?$AA@ 2003cb4c     bg_misc.obj
 0002:00001b58       ??_C@_09LEHMCJEL@EV_DEATH2?$AA@ 2003cb58     bg_misc.obj
 0002:00001b64       ??_C@_09JPFBHKII@EV_DEATH1?$AA@ 2003cb64     bg_misc.obj
 0002:00001b70       ??_C@_07EMHHKOOH@EV_PAIN?$AA@ 2003cb70     bg_misc.obj
 0002:00001b78       ??_C@_09ICDIPKFJ@EV_BULLET?$AA@ 2003cb78     bg_misc.obj
 0002:00001b84       ??_C@_0L@LHBIHDML@EV_SHOTGUN?$AA@ 2003cb84     bg_misc.obj
 0002:00001b90       ??_C@_0N@HMLLJFGF@EV_RAILTRAIL?$AA@ 2003cb90     bg_misc.obj
 0002:00001ba0       ??_C@_0BG@LPAHEABB@EV_MISSILE_MISS_METAL?$AA@ 2003cba0     bg_misc.obj
 0002:00001bb8       ??_C@_0BA@CAHALNAE@EV_MISSILE_MISS?$AA@ 2003cbb8     bg_misc.obj
 0002:00001bc8       ??_C@_0P@JFMFNBMO@EV_MISSILE_HIT?$AA@ 2003cbc8     bg_misc.obj
 0002:00001bd8       ??_C@_0BD@MFLMCLPN@EV_BULLET_HIT_WALL?$AA@ 2003cbd8     bg_misc.obj
 0002:00001bec       ??_C@_0BE@KBABEJMP@EV_BULLET_HIT_FLESH?$AA@ 2003cbec     bg_misc.obj
 0002:00001c00       ??_C@_0BF@DDOIKLHD@EV_GLOBAL_TEAM_SOUND?$AA@ 2003cc00     bg_misc.obj
 0002:00001c18       ??_C@_0BA@JAMKLOPJ@EV_GLOBAL_SOUND?$AA@ 2003cc18     bg_misc.obj
 0002:00001c28       ??_C@_0BB@LJGGMAII@EV_GENERAL_SOUND?$AA@ 2003cc28     bg_misc.obj
 0002:00001c3c       ??_C@_0BC@ECIIAFLJ@EV_GRENADE_BOUNCE?$AA@ 2003cc3c     bg_misc.obj
 0002:00001c50       ??_C@_0BH@FNNILPIN@EV_PLAYER_TELEPORT_OUT?$AA@ 2003cc50     bg_misc.obj
 0002:00001c68       ??_C@_0BG@HBBJKNDP@EV_PLAYER_TELEPORT_IN?$AA@ 2003cc68     bg_misc.obj
 0002:00001c80       ??_C@_0M@ECGFPIMP@EV_ITEM_POP?$AA@ 2003cc80     bg_misc.obj
 0002:00001c8c       ??_C@_0BA@GJNCODNG@EV_ITEM_RESPAWN?$AA@ 2003cc8c     bg_misc.obj
 0002:00001c9c       ??_C@_0O@HHGOLJPJ@EV_USE_ITEM15?$AA@ 2003cc9c     bg_misc.obj
 0002:00001cac       ??_C@_0O@GOHFIILI@EV_USE_ITEM14?$AA@ 2003ccac     bg_misc.obj
 0002:00001cbc       ??_C@_0O@CBDEBOHP@EV_USE_ITEM13?$AA@ 2003ccbc     bg_misc.obj
 0002:00001ccc       ??_C@_0O@DICPCPDO@EV_USE_ITEM12?$AA@ 2003cccc     bg_misc.obj
 0002:00001cdc       ??_C@_0O@BDACHMPN@EV_USE_ITEM11?$AA@ 2003ccdc     bg_misc.obj
 0002:00001cec       ??_C@_0O@KBJENLM@EV_USE_ITEM10?$AA@ 2003ccec     bg_misc.obj
 0002:00001cfc       ??_C@_0N@PHODCBCK@EV_USE_ITEM9?$AA@ 2003ccfc     bg_misc.obj
 0002:00001d0c       ??_C@_0N@OOPIBAGL@EV_USE_ITEM8?$AA@ 2003cd0c     bg_misc.obj
 0002:00001d1c       ??_C@_0N@GJGAAMKE@EV_USE_ITEM7?$AA@ 2003cd1c     bg_misc.obj
 0002:00001d2c       ??_C@_0N@HAHLDNOF@EV_USE_ITEM6?$AA@ 2003cd2c     bg_misc.obj
 0002:00001d3c       ??_C@_0N@FLFGGOCG@EV_USE_ITEM5?$AA@ 2003cd3c     bg_misc.obj
 0002:00001d4c       ??_C@_0N@ECENFPGH@EV_USE_ITEM4?$AA@ 2003cd4c     bg_misc.obj
 0002:00001d5c       ??_C@_0N@NAMMJKA@EV_USE_ITEM3?$AA@ 2003cd5c     bg_misc.obj
 0002:00001d6c       ??_C@_0N@BEBHPIOB@EV_USE_ITEM2?$AA@ 2003cd6c     bg_misc.obj
 0002:00001d7c       ??_C@_0N@DPDKKLCC@EV_USE_ITEM1?$AA@ 2003cd7c     bg_misc.obj
 0002:00001d8c       ??_C@_0N@CGCBJKGD@EV_USE_ITEM0?$AA@ 2003cd8c     bg_misc.obj
 0002:00001d9c       ??_C@_0P@PFJPAFGH@EV_FIRE_WEAPON?$AA@ 2003cd9c     bg_misc.obj
 0002:00001dac       ??_C@_0BB@ENKPHJLP@EV_CHANGE_WEAPON?$AA@ 2003cdac     bg_misc.obj
 0002:00001dc0       ??_C@_09NMIICG@EV_NOAMMO?$AA@ 2003cdc0     bg_misc.obj
 0002:00001dcc       ??_C@_0BG@KFILGAMN@EV_GLOBAL_ITEM_PICKUP?$AA@ 2003cdcc     bg_misc.obj
 0002:00001de4       ??_C@_0P@BGIOEPCB@EV_ITEM_PICKUP?$AA@ 2003cde4     bg_misc.obj
 0002:00001df4       ??_C@_0P@NIPCJOBG@EV_WATER_CLEAR?$AA@ 2003cdf4     bg_misc.obj
 0002:00001e04       ??_C@_0P@MIAIODEJ@EV_WATER_UNDER?$AA@ 2003ce04     bg_misc.obj
 0002:00001e14       ??_C@_0P@LHDMOIIG@EV_WATER_LEAVE?$AA@ 2003ce14     bg_misc.obj
 0002:00001e24       ??_C@_0P@GCDBKPMP@EV_WATER_TOUCH?$AA@ 2003ce24     bg_misc.obj
 0002:00001e34       ??_C@_07GKBEHGAP@EV_JUMP?$AA@ 2003ce34     bg_misc.obj
 0002:00001e3c       ??_C@_0M@BPNFGBOJ@EV_JUMP_PAD?$AA@ 2003ce3c     bg_misc.obj
 0002:00001e48       ??_C@_0M@LKJJNJOM@EV_FALL_FAR?$AA@ 2003ce48     bg_misc.obj
 0002:00001e54       ??_C@_0P@MGFLMCKC@EV_FALL_MEDIUM?$AA@ 2003ce54     bg_misc.obj
 0002:00001e64       ??_C@_0O@EAFDHAJM@EV_FALL_SHORT?$AA@ 2003ce64     bg_misc.obj
 0002:00001e74       ??_C@_0L@HOOIOPKF@EV_STEP_16?$AA@ 2003ce74     bg_misc.obj
 0002:00001e80       ??_C@_0L@BKIECKKB@EV_STEP_12?$AA@ 2003ce80     bg_misc.obj
 0002:00001e8c       ??_C@_09EHOLDGNN@EV_STEP_8?$AA@ 2003ce8c     bg_misc.obj
 0002:00001e98       ??_C@_09OLFOHJNB@EV_STEP_4?$AA@ 2003ce98     bg_misc.obj
 0002:00001ea4       ??_C@_07FFIIIPLH@EV_SWIM?$AA@ 2003cea4     bg_misc.obj
 0002:00001eac       ??_C@_0M@NPJBGELA@EV_FOOTWADE?$AA@ 2003ceac     bg_misc.obj
 0002:00001eb8       ??_C@_0O@HLJHKIDH@EV_FOOTSPLASH?$AA@ 2003ceb8     bg_misc.obj
 0002:00001ec8       ??_C@_0BC@DIJMAMMI@EV_FOOTSTEP_METAL?$AA@ 2003cec8     bg_misc.obj
 0002:00001edc       ??_C@_0M@HLKBOJPO@EV_FOOTSTEP?$AA@ 2003cedc     bg_misc.obj
 0002:00001ee8       ??_C@_07JFMDDPHJ@EV_NONE?$AA@ 2003cee8     bg_misc.obj
 0002:00001ef0       ??_C@_0BB@EMIIAFKA@icons?1iconf_blu1?$AA@ 2003cef0     bg_misc.obj
 0002:00001f04       ??_C@_0BI@FKICCNIF@models?1flags?1b_flag?4md3?$AA@ 2003cf04     bg_misc.obj
 0002:00001f1c       ??_C@_0BC@NLKCOFAB@team_CTF_blueflag?$AA@ 2003cf1c     bg_misc.obj
 0002:00001f30       ??_C@_0BB@EMIEBEOP@icons?1iconf_red1?$AA@ 2003cf30     bg_misc.obj
 0002:00001f44       ??_C@_0BI@PEHEOJEO@models?1flags?1r_flag?4md3?$AA@ 2003cf44     bg_misc.obj
 0002:00001f5c       ??_C@_0BB@JNMMCIHG@team_CTF_redflag?$AA@ 2003cf5c     bg_misc.obj
 0002:00001f70       ??_C@_0N@GLEPEEPG@icons?1flight?$AA@ 2003cf70     bg_misc.obj
 0002:00001f80       ??_C@_0CI@IADFFEDP@models?1powerups?1instant?1flight_r@ 2003cf80     bg_misc.obj
 0002:00001fa8       ??_C@_0CD@MKDGJOMG@models?1powerups?1instant?1flight?4m@ 2003cfa8     bg_misc.obj
 0002:00001fcc       ??_C@_0BH@COLFHEAE@sound?1items?1flight?4wav?$AA@ 2003cfcc     bg_misc.obj
 0002:00001fe4       ??_C@_0M@MBNKEMMH@item_flight?$AA@ 2003cfe4     bg_misc.obj
 0002:00001ff0       ??_C@_0BG@LHDLOKKN@sound?1items?1regen?4wav?$AA@ 2003cff0     bg_misc.obj
 0002:00002008       ??_C@_0M@FDCLJBFC@icons?1regen?$AA@ 2003d008     bg_misc.obj
 0002:00002014       ??_C@_0CH@FANACKJM@models?1powerups?1instant?1regen_ri@ 2003d014     bg_misc.obj
 0002:0000203c       ??_C@_0CC@OEAPIKIN@models?1powerups?1instant?1regen?4md@ 2003d03c     bg_misc.obj
 0002:00002060       ??_C@_0BN@OBGKHNFF@sound?1items?1regeneration?4wav?$AA@ 2003d060     bg_misc.obj
 0002:00002080       ??_C@_0L@MMGPPPDM@item_regen?$AA@ 2003d080     bg_misc.obj
 0002:0000208c       ??_C@_0M@FDDJPHJJ@icons?1invis?$AA@ 2003d08c     bg_misc.obj
 0002:00002098       ??_C@_0CH@IMIHJDNC@models?1powerups?1instant?1invis_ri@ 2003d098     bg_misc.obj
 0002:000020c0       ??_C@_0CC@HBONCEML@models?1powerups?1instant?1invis?4md@ 2003d0c0     bg_misc.obj
 0002:000020e4       ??_C@_0BN@OJBEBLGB@sound?1items?1invisibility?4wav?$AA@ 2003d0e4     bg_misc.obj
 0002:00002104       ??_C@_0L@MMHNJJPH@item_invis?$AA@ 2003d104     bg_misc.obj
 0002:00002110       ??_C@_0M@CFINMGCL@icons?1haste?$AA@ 2003d110     bg_misc.obj
 0002:0000211c       ??_C@_0CH@KKDDKNEF@models?1powerups?1instant?1haste_ri@ 2003d11c     bg_misc.obj
 0002:00002144       ??_C@_0CC@NKPAJCMI@models?1powerups?1instant?1haste?4md@ 2003d144     bg_misc.obj
 0002:00002168       ??_C@_0BG@IJMEPCOI@sound?1items?1haste?4wav?$AA@ 2003d168     bg_misc.obj
 0002:00002180       ??_C@_0L@LKMJKIEF@item_haste?$AA@ 2003d180     bg_misc.obj
 0002:0000218c       ??_C@_0DA@OCPACKGN@sound?1items?1airout?4wav?5sound?1ite@ 2003d18c     bg_misc.obj
 0002:000021bc       ??_C@_0BB@MGICBJOH@icons?1envirosuit?$AA@ 2003d1bc     bg_misc.obj
 0002:000021d0       ??_C@_0CI@KAEDJDGE@models?1powerups?1instant?1enviro_r@ 2003d1d0     bg_misc.obj
 0002:000021f8       ??_C@_0CD@JLGNIGLA@models?1powerups?1instant?1enviro?4m@ 2003d1f8     bg_misc.obj
 0002:0000221c       ??_C@_0BI@DEKBIKDD@sound?1items?1protect?4wav?$AA@ 2003d21c     bg_misc.obj
 0002:00002234       ??_C@_0M@HBCGNAN@item_enviro?$AA@ 2003d234     bg_misc.obj
 0002:00002240       ??_C@_0DA@PPPPKFJI@sound?1items?1damage2?4wav?5sound?1it@ 2003d240     bg_misc.obj
 0002:00002270       ??_C@_0L@DICHEOBB@icons?1quad?$AA@ 2003d270     bg_misc.obj
 0002:0000227c       ??_C@_0CG@JNMBMLHJ@models?1powerups?1instant?1quad_rin@ 2003d27c     bg_misc.obj
 0002:000022a4       ??_C@_0CB@HIFGFDGN@models?1powerups?1instant?1quad?4md3@ 2003d2a4     bg_misc.obj
 0002:000022c8       ??_C@_0BL@GLEJLOCA@sound?1items?1quaddamage?4wav?$AA@ 2003d2c8     bg_misc.obj
 0002:000022e4       ??_C@_09MDKNIFFH@item_quad?$AA@ 2003d2e4     bg_misc.obj
 0002:000022f0       ??_C@_0BL@GLIFPGGG@sound?1items?1use_medkit?4wav?$AA@ 2003d2f0     bg_misc.obj
 0002:0000230c       ??_C@_06JDLGEHAD@Medkit?$AA@ 2003d30c     bg_misc.obj
 0002:00002314       ??_C@_0N@PNMDFAPK@icons?1medkit?$AA@ 2003d314     bg_misc.obj
 0002:00002324       ??_C@_0CL@LOBKLABC@models?1powerups?1holdable?1medkit_@ 2003d324     bg_misc.obj
 0002:00002350       ??_C@_0CE@NKMJILL@models?1powerups?1holdable?1medkit?4@ 2003d350     bg_misc.obj
 0002:00002374       ??_C@_0BA@PDDMBOCP@holdable_medkit?$AA@ 2003d374     bg_misc.obj
 0002:00002384       ??_C@_0BE@PCKJDFFA@Personal?5Teleporter?$AA@ 2003d384     bg_misc.obj
 0002:00002398       ??_C@_0BB@HCFICFKF@icons?1teleporter?$AA@ 2003d398     bg_misc.obj
 0002:000023ac       ??_C@_0CI@FHEOFFOB@models?1powerups?1holdable?1telepor@ 2003d3ac     bg_misc.obj
 0002:000023d4       ??_C@_0BJ@PNIOAJDI@sound?1items?1holdable?4wav?$AA@ 2003d3d4     bg_misc.obj
 0002:000023f0       ??_C@_0BE@GNEKBMLB@holdable_teleporter?$AA@ 2003d3f0     bg_misc.obj
 0002:00002404       ??_C@_08LIBOGPIN@Bfg?5Ammo?$AA@ 2003d404     bg_misc.obj
 0002:00002410       ??_C@_0BA@NIKNDLKG@icons?1icona_bfg?$AA@ 2003d410     bg_misc.obj
 0002:00002420       ??_C@_0BP@BOBKFIKJ@models?1powerups?1ammo?1bfgam?4md3?$AA@ 2003d420     bg_misc.obj
 0002:00002440       ??_C@_08EHEJHGBG@ammo_bfg?$AA@ 2003d440     bg_misc.obj
 0002:0000244c       ??_C@_05INIOBJHH@Slugs?$AA@ 2003d44c     bg_misc.obj
 0002:00002454       ??_C@_0BE@DPOADFL@icons?1icona_railgun?$AA@ 2003d454     bg_misc.obj
 0002:00002468       ??_C@_0CD@CAJEPMME@models?1powerups?1ammo?1railgunam?4m@ 2003d468     bg_misc.obj
 0002:0000248c       ??_C@_0L@JEFOIHIM@ammo_slugs?$AA@ 2003d48c     bg_misc.obj
 0002:00002498       ??_C@_07MLLADOAB@Rockets?$AA@ 2003d498     bg_misc.obj
 0002:000024a0       ??_C@_0BD@BFBJLPJK@icons?1icona_rocket?$AA@ 2003d4a0     bg_misc.obj
 0002:000024b4       ??_C@_0CC@KCOEDLFM@models?1powerups?1ammo?1rocketam?4md@ 2003d4b4     bg_misc.obj
 0002:000024d8       ??_C@_0N@CLEPKBOE@ammo_rockets?$AA@ 2003d4d8     bg_misc.obj
 0002:000024e8       ??_C@_09JCCOMJEA@Lightning?$AA@ 2003d4e8     bg_misc.obj
 0002:000024f4       ??_C@_0BG@MEGMAGOM@icons?1icona_lightning?$AA@ 2003d4f4     bg_misc.obj
 0002:0000250c       ??_C@_0CF@HDAADIIL@models?1powerups?1ammo?1lightningam@ 2003d50c     bg_misc.obj
 0002:00002534       ??_C@_0P@NBJHKAMD@ammo_lightning?$AA@ 2003d534     bg_misc.obj
 0002:00002544       ??_C@_05KCAMIOGJ@Cells?$AA@ 2003d544     bg_misc.obj
 0002:0000254c       ??_C@_0BD@NCNJEHKB@icons?1icona_plasma?$AA@ 2003d54c     bg_misc.obj
 0002:00002560       ??_C@_0CC@FGLALJGN@models?1powerups?1ammo?1plasmaam?4md@ 2003d560     bg_misc.obj
 0002:00002584       ??_C@_0L@LLNMBAJC@ammo_cells?$AA@ 2003d584     bg_misc.obj
 0002:00002590       ??_C@_08PMBIADEN@Grenades?$AA@ 2003d590     bg_misc.obj
 0002:0000259c       ??_C@_0BE@LHOKGGAM@icons?1icona_grenade?$AA@ 2003d59c     bg_misc.obj
 0002:000025b0       ??_C@_0CD@HNOBKKLC@models?1powerups?1ammo?1grenadeam?4m@ 2003d5b0     bg_misc.obj
 0002:000025d4       ??_C@_0O@CMJIOKCF@ammo_grenades?$AA@ 2003d5d4     bg_misc.obj
 0002:000025e4       ??_C@_07DHNDKCGP@Bullets?$AA@ 2003d5e4     bg_misc.obj
 0002:000025ec       ??_C@_0BH@HMOAGCNP@icons?1icona_machinegun?$AA@ 2003d5ec     bg_misc.obj
 0002:00002604       ??_C@_0CG@OLENEOKN@models?1powerups?1ammo?1machineguna@ 2003d604     bg_misc.obj
 0002:0000262c       ??_C@_0N@NHCMDNIK@ammo_bullets?$AA@ 2003d62c     bg_misc.obj
 0002:0000263c       ??_C@_06PBPEPGGL@Shells?$AA@ 2003d63c     bg_misc.obj
 0002:00002644       ??_C@_0BE@NMAFHJEI@icons?1icona_shotgun?$AA@ 2003d644     bg_misc.obj
 0002:00002658       ??_C@_0CD@MBAGJHDE@models?1powerups?1ammo?1shotgunam?4m@ 2003d658     bg_misc.obj
 0002:0000267c       ??_C@_0BH@DPAADLFH@sound?1misc?1am_pkup?4wav?$AA@ 2003d67c     bg_misc.obj
 0002:00002694       ??_C@_0M@NLICANGB@ammo_shells?$AA@ 2003d694     bg_misc.obj
 0002:000026a0       ??_C@_0P@CFJPDDC@Grappling?5Hook?$AA@ 2003d6a0     bg_misc.obj
 0002:000026b0       ??_C@_0BE@DPKNJNBE@icons?1iconw_grapple?$AA@ 2003d6b0     bg_misc.obj
 0002:000026c4       ??_C@_0CE@LFAGANA@models?1weapons2?1grapple?1grapple?4@ 2003d6c4     bg_misc.obj
 0002:000026e8       ??_C@_0BF@MEMGGPGH@weapon_grapplinghook?$AA@ 2003d6e8     bg_misc.obj
 0002:00002700       ??_C@_0BA@NCCNKCA@icons?1iconw_bfg?$AA@ 2003d700     bg_misc.obj
 0002:00002710       ??_C@_0BM@HHDGGOHP@models?1weapons2?1bfg?1bfg?4md3?$AA@ 2003d710     bg_misc.obj
 0002:0000272c       ??_C@_0L@JBGNLNGG@weapon_bfg?$AA@ 2003d72c     bg_misc.obj
 0002:00002738       ??_C@_0L@JFFCGJF@Plasma?5Gun?$AA@ 2003d738     bg_misc.obj
 0002:00002744       ??_C@_0BD@NADHMFK@icons?1iconw_plasma?$AA@ 2003d744     bg_misc.obj
 0002:00002758       ??_C@_0CC@EHGHEDND@models?1weapons2?1plasma?1plasma?4md@ 2003d758     bg_misc.obj
 0002:0000277c       ??_C@_0BB@LBHAKENA@weapon_plasmagun?$AA@ 2003d77c     bg_misc.obj
 0002:00002790       ??_C@_0BE@CJEOPCPE@icons?1iconw_railgun?$AA@ 2003d790     bg_misc.obj
 0002:000027a4       ??_C@_0CE@JHJFFEBE@models?1weapons2?1railgun?1railgun?4@ 2003d7a4     bg_misc.obj
 0002:000027c8       ??_C@_0P@FEPBKEBF@weapon_railgun?$AA@ 2003d7c8     bg_misc.obj
 0002:000027d8       ??_C@_0BG@CHEJEOPA@icons?1iconw_lightning?$AA@ 2003d7d8     bg_misc.obj
 0002:000027f0       ??_C@_0CI@MNAFJDPO@models?1weapons2?1lightning?1lightn@ 2003d7f0     bg_misc.obj
 0002:00002818       ??_C@_0BB@OCCEAFCD@weapon_lightning?$AA@ 2003d818     bg_misc.obj
 0002:0000282c       ??_C@_0BD@MKMDIEGB@icons?1iconw_rocket?$AA@ 2003d82c     bg_misc.obj
 0002:00002840       ??_C@_0CE@GGGFLKKE@models?1weapons2?1rocketl?1rocketl?4@ 2003d840     bg_misc.obj
 0002:00002864       ??_C@_0BG@HJKONAJE@weapon_rocketlauncher?$AA@ 2003d864     bg_misc.obj
 0002:00002880       ??_C@_0EG@LFEMOCGK@sound?1weapons?1grenade?1hgrenb1a?4w@ 2003d880     bg_misc.obj
 0002:000028c8       ??_C@_0BE@JNFKJHKD@icons?1iconw_grenade?$AA@ 2003d8c8     bg_misc.obj
 0002:000028dc       ??_C@_0CG@INCGOMDL@models?1weapons2?1grenadel?1grenade@ 2003d8dc     bg_misc.obj
 0002:00002904       ??_C@_0BH@DGCCJPLM@weapon_grenadelauncher?$AA@ 2003d904     bg_misc.obj
 0002:0000291c       ??_C@_0BH@GIACBLNI@icons?1iconw_machinegun?$AA@ 2003d91c     bg_misc.obj
 0002:00002934       ??_C@_0CK@BBPFNIFO@models?1weapons2?1machinegun?1machi@ 2003d934     bg_misc.obj
 0002:00002960       ??_C@_0BC@HHBNPFPN@weapon_machinegun?$AA@ 2003d960     bg_misc.obj
 0002:00002974       ??_C@_0BE@PGLFIIOH@icons?1iconw_shotgun?$AA@ 2003d974     bg_misc.obj
 0002:00002988       ??_C@_0CE@CJGCHKCN@models?1weapons2?1shotgun?1shotgun?4@ 2003d988     bg_misc.obj
 0002:000029ac       ??_C@_0P@ILAKNOAG@weapon_shotgun?$AA@ 2003d9ac     bg_misc.obj
 0002:000029bc       ??_C@_0BF@PMEPIOCM@icons?1iconw_gauntlet?$AA@ 2003d9bc     bg_misc.obj
 0002:000029d4       ??_C@_0CG@PFPPJBAC@models?1weapons2?1gauntlet?1gauntle@ 2003d9d4     bg_misc.obj
 0002:000029fc       ??_C@_0BG@BBKFHONL@sound?1misc?1w_pkup?4wav?$AA@ 2003d9fc     bg_misc.obj
 0002:00002a14       ??_C@_0BA@CLDPODJE@weapon_gauntlet?$AA@ 2003da14     bg_misc.obj
 0002:00002a24       ??_C@_0M@IOJDMPNO@Mega?5Health?$AA@ 2003da24     bg_misc.obj
 0002:00002a30       ??_C@_0BB@EGPGIMOM@icons?1iconh_mega?$AA@ 2003da30     bg_misc.obj
 0002:00002a44       ??_C@_0CH@NEGHBKPB@models?1powerups?1health?1mega_sphe@ 2003da44     bg_misc.obj
 0002:00002a6c       ??_C@_0CG@PDJMMGME@models?1powerups?1health?1mega_cros@ 2003da6c     bg_misc.obj
 0002:00002a94       ??_C@_0BJ@FGLGEHNG@sound?1items?1m_health?4wav?$AA@ 2003da94     bg_misc.obj
 0002:00002ab0       ??_C@_0BB@PBGAONGH@item_health_mega?$AA@ 2003dab0     bg_misc.obj
 0002:00002ac4       ??_C@_09EBELOOOD@50?5Health?$AA@ 2003dac4     bg_misc.obj
 0002:00002ad0       ??_C@_0BA@IGNANAGL@icons?1iconh_red?$AA@ 2003dad0     bg_misc.obj
 0002:00002ae0       ??_C@_0CI@CEEMEFNH@models?1powerups?1health?1large_sph@ 2003dae0     bg_misc.obj
 0002:00002b08       ??_C@_0CH@NHFAKEFE@models?1powerups?1health?1large_cro@ 2003db08     bg_misc.obj
 0002:00002b30       ??_C@_0BJ@ILCAJOFD@sound?1items?1l_health?4wav?$AA@ 2003db30     bg_misc.obj
 0002:00002b4c       ??_C@_0BC@JGDLKFIO@item_health_large?$AA@ 2003db4c     bg_misc.obj
 0002:00002b60       ??_C@_09OJAALANF@25?5Health?$AA@ 2003db60     bg_misc.obj
 0002:00002b6c       ??_C@_0BD@CDBLAHCA@icons?1iconh_yellow?$AA@ 2003db6c     bg_misc.obj
 0002:00002b80       ??_C@_0CJ@NCCPDHOD@models?1powerups?1health?1medium_sp@ 2003db80     bg_misc.obj
 0002:00002bac       ??_C@_0CI@NAEMLIB@models?1powerups?1health?1medium_cr@ 2003dbac     bg_misc.obj
 0002:00002bd4       ??_C@_0BJ@OLHMCLBI@sound?1items?1n_health?4wav?$AA@ 2003dbd4     bg_misc.obj
 0002:00002bf0       ??_C@_0M@KCNAKNNL@item_health?$AA@ 2003dbf0     bg_misc.obj
 0002:00002bfc       ??_C@_08IAIFJOAI@5?5Health?$AA@ 2003dbfc     bg_misc.obj
 0002:00002c08       ??_C@_0BC@IMNPBGFF@icons?1iconh_green?$AA@ 2003dc08     bg_misc.obj
 0002:00002c1c       ??_C@_0CI@MPAPPIIE@models?1powerups?1health?1small_sph@ 2003dc1c     bg_misc.obj
 0002:00002c44       ??_C@_0CH@JKNLMIJB@models?1powerups?1health?1small_cro@ 2003dc44     bg_misc.obj
 0002:00002c6c       ??_C@_0BJ@BIFHONLM@sound?1items?1s_health?4wav?$AA@ 2003dc6c     bg_misc.obj
 0002:00002c88       ??_C@_0BC@DOHAFEBI@item_health_small?$AA@ 2003dc88     bg_misc.obj
 0002:00002c9c       ??_C@_0BA@CEJNPBJG@icons?1iconr_red?$AA@ 2003dc9c     bg_misc.obj
 0002:00002cac       ??_C@_0CE@EGJFDJJK@models?1powerups?1armor?1armor_red?4@ 2003dcac     bg_misc.obj
 0002:00002cd0       ??_C@_0BA@EKKMHIH@item_armor_body?$AA@ 2003dcd0     bg_misc.obj
 0002:00002ce0       ??_C@_0BD@BKPFMPMP@icons?1iconr_yellow?$AA@ 2003dce0     bg_misc.obj
 0002:00002cf4       ??_C@_0CE@PHKMKHKB@models?1powerups?1armor?1armor_yel?4@ 2003dcf4     bg_misc.obj
 0002:00002d18       ??_C@_0BI@KNMPECGK@sound?1misc?1ar2_pkup?4wav?$AA@ 2003dd18     bg_misc.obj
 0002:00002d30       ??_C@_0BC@FPPLPJIL@item_armor_combat?$AA@ 2003dd30     bg_misc.obj
 0002:00002d44       ??_C@_0M@PJIPIDNH@Armor?5Shard?$AA@ 2003dd44     bg_misc.obj
 0002:00002d50       ??_C@_0BC@LPFHDODA@icons?1iconr_shard?$AA@ 2003dd50     bg_misc.obj
 0002:00002d64       ??_C@_0CH@NEKDLKN@models?1powerups?1armor?1shard_sphe@ 2003dd64     bg_misc.obj
 0002:00002d8c       ??_C@_0CA@NOFOCCIK@models?1powerups?1armor?1shard?4md3?$AA@ 2003dd8c     bg_misc.obj
 0002:00002dac       ??_C@_0BI@DECNCEGL@sound?1misc?1ar1_pkup?4wav?$AA@ 2003ddac     bg_misc.obj
 0002:00002dc4       ??_C@_0BB@DDGIAABK@item_armor_shard?$AA@ 2003ddc4     bg_misc.obj
 0002:00002dd8       ??_C@_0CB@DEACFJO@Couldn?8t?5find?5item?5for?5weapon?5?$CFi@ 2003ddd8     bg_misc.obj
 0002:00002dfc       ??_C@_0BM@NECGLAIF@BG_CanItemBeGrabbed?3?5IT_BAD?$AA@ 2003ddfc     bg_misc.obj
 0002:00002e18       ??_C@_0CI@MFONMA@BG_CanItemBeGrabbed?3?5index?5out?5o@ 2003de18     bg_misc.obj
 0002:00002e40       ??_C@_0CK@DNBGNAED@BG_EvaluateTrajectory?3?5unknown?5t@ 2003de40     bg_misc.obj
 0002:00002e70       __real@4054000000000000    2003de70     bg_misc.obj
 0002:00002e78       __real@4079000000000000    2003de78     bg_misc.obj
 0002:00002e80       __real@40c90fdb            2003de80     bg_misc.obj
 0002:00002e84       ??_C@_0CP@MCFPOIMF@BG_EvaluateTrajectoryDelta?3?5unkn@ 2003de84     bg_misc.obj
 0002:00002eb4       __real@42340000            2003deb4     bg_misc.obj
 0002:00002eb8       __real@c2100000            2003deb8     bg_misc.obj
 0002:00002ebc       __real@42100000            2003debc     bg_misc.obj
 0002:00002ec0       __real@c2480000            2003dec0     bg_misc.obj
 0002:00002ec4       __real@42300000            2003dec4     bg_misc.obj
 0002:00002ec8       __real@405fc00000000000    2003dec8     bg_pmove.obj
 0002:00002ed0       __real@41f00000            2003ded0     bg_pmove.obj
 0002:00002ed4       __real@3f7fbe87            2003ded4     bg_pmove.obj
 0002:00002ed8       __real@3f8020c5            2003ded8     bg_pmove.obj
 0002:00002edc       __real@c1800000            2003dedc     bg_pmove.obj
 0002:00002ee0       __real@3fd5555555555555    2003dee0     bg_pmove.obj
 0002:00002ee8       __real@40e00000            2003dee8     bg_pmove.obj
 0002:00002ef0       __real@3f1a36e2eb1c432d    2003def0     bg_pmove.obj
 0002:00002ef8       __real@3f000000            2003def8     bg_pmove.obj
 0002:00002efc       ??_C@_0N@KJCNHCBK@?$CFi?3allsolid?6?$AA@ 2003defc     bg_pmove.obj
 0002:00002f0c       ??_C@_08EOGJDHPF@?$CFi?3lift?6?$AA@ 2003df0c     bg_pmove.obj
 0002:00002f18       __real@c3480000            2003df18     bg_pmove.obj
 0002:00002f1c       ??_C@_08KACHPCJN@?$CFi?3Land?6?$AA@ 2003df1c     bg_pmove.obj
 0002:00002f28       ??_C@_09OPMLNNOA@?$CFi?3steep?6?$AA@ 2003df28     bg_pmove.obj
 0002:00002f34       ??_C@_0M@CKJFDFGH@?$CFi?3kickoff?6?$AA@ 2003df34     bg_pmove.obj
 0002:00002f40       __real@3e99999a            2003df40     bg_pmove.obj
 0002:00002f48       __real@3fe89d89d89d89d8    2003df48     bg_pmove.obj
 0002:00002f50       ??_C@_0M@CDHDENEF@?$CFi?3stepped?6?$AA@ 2003df50     bg_slidemove.obj
 0002:00002f5c       __real@41300000            2003df5c     bg_slidemove.obj
 0002:00002f60       ??_C@_0BE@FLPNHHPN@?$CFi?3bend?5can?8t?5step?6?$AA@ 2003df60     bg_slidemove.obj
 0002:00002f74       __real@41900000            2003df74     bg_slidemove.obj
 0002:00002f78       __real@3fe6c16c16c16c17    2003df78     g_active.obj
 0002:00002f80       __real@437f0000            2003df80     g_active.obj
 0002:00002f84       ??_C@_0BH@CIEIFFOL@sound?1player?1gurp2?4wav?$AA@ 2003df84     g_active.obj
 0002:00002f9c       ??_C@_0BH@KONMCHEF@sound?1player?1gurp1?4wav?$AA@ 2003df9c     g_active.obj
 0002:00002fb4       ??_C@_0L@FMIBJCKG@?$CKdrown?4wav?$AA@ 2003dfb4     g_active.obj
 0002:00002fc0       ??_C@_0CJ@OOBJBOCC@cp?5?$CCTen?5seconds?5until?5inactivity@ 2003dfc0     g_active.obj
 0002:00002fec       ??_C@_0BK@CMFHJBAI@Dropped?5due?5to?5inactivity?$AA@ 2003dfec     g_active.obj
 0002:00003008       __real@3ff199999999999a    2003e008     g_active.obj
 0002:00003010       __real@3ff4cccccccccccd    2003e010     g_active.obj
 0002:00003018       ??_C@_0L@JLBEBBAD@pmove_msec?$AA@ 2003e018     g_active.obj
 0002:00003024       ??_C@_02NCPIBIBE@33?$AA@   2003e024     g_active.obj
 0002:00003028       ??_C@_01KJLJFBPL@8?$AA@    2003e028     g_active.obj
 0002:0000302c       ??_C@_09HCJPKLNL@?5?$CFi?5?$CFi?5?$CFi?$AA@ 2003e02c     g_arenas.obj
 0002:00003038       ??_C@_0CB@CLLCPLDB@postgame?5?$CFi?5?$CFi?5?$CFi?5?$CFi?5?$CFi?5?$CFi?5?$CFi?5?$CFi@ 2003e038     g_arenas.obj
 0002:0000305c       ??_C@_0BL@HAGGIKPH@postgame?5?$CFi?5?$CFi?50?50?50?50?50?50?$AA@ 2003e05c     g_arenas.obj
 0002:00003078       ??_C@_0BL@MJMDOODN@?$FO1ERROR?3?5out?5of?5gentities?6?$AA@ 2003e078     g_arenas.obj
 0002:00003094       ??_C@_0N@NHMKEGEN@g_podiumDrop?$AA@ 2003e094     g_arenas.obj
 0002:000030a4       ??_C@_0N@CBICAJMD@g_podiumDist?$AA@ 2003e0a4     g_arenas.obj
 0002:000030b4       ??_C@_06NPKMJLHA@podium?$AA@ 2003e0b4     g_arenas.obj
 0002:000030bc       ??_C@_0CF@MDONDONI@models?1mapobjects?1podium?1podium4@ 2003e0bc     g_arenas.obj
 0002:000030e4       ??_C@_0BE@IKMJLADL@Max?5infos?5exceeded?6?$AA@ 2003e0e4     g_bot.obj
 0002:000030f8       ??_C@_0BI@BMEIBPEH@Missing?5?$HL?5in?5info?5file?6?$AA@ 2003e0f8     g_bot.obj
 0002:00003110       ??_C@_0BN@HAJDHEGK@Unexpected?5end?5of?5info?5file?6?$AA@ 2003e110     g_bot.obj
 0002:00003130       ??_C@_06CBHGEMFM@?$DMNULL?$DO?$AA@ 2003e130     g_bot.obj
 0002:00003138       ??_C@_01CELHOKLL@?$HN?$AA@ 2003e138     g_bot.obj
 0002:0000313c       ??_C@_01HCONENDN@?$HL?$AA@ 2003e13c     g_bot.obj
 0002:00003140       ??_C@_0CO@OKDDPLPD@?$FO1file?5too?5large?3?5?$CFs?5is?5?$CFi?0?5max?5@ 2003e140     g_bot.obj
 0002:00003170       ??_C@_0BG@BJEIGKLP@?$FO1file?5not?5found?3?5?$CFs?6?$AA@ 2003e170     g_bot.obj
 0002:00003188       ??_C@_03IHCLBPIC@num?$AA@  2003e188     g_bot.obj
 0002:0000318c       ??_C@_02IKAHHCAI@?$CFi?$AA@ 2003e18c     g_bot.obj
 0002:00003190       ??_C@_0BC@MIFKOHOA@?$CFi?5arenas?5parsed?6?$AA@ 2003e190     g_bot.obj
 0002:000031a4       ??_C@_08IDJEBFOJ@scripts?1?$AA@ 2003e1a4     g_bot.obj
 0002:000031b0       ??_C@_07OMEBBDEO@scripts?$AA@ 2003e1b0     g_bot.obj
 0002:000031b8       ??_C@_06IPPMLGON@?4arena?$AA@ 2003e1b8     g_bot.obj
 0002:000031c0       ??_C@_0BD@KEINBKFE@scripts?1arenas?4txt?$AA@ 2003e1c0     g_bot.obj
 0002:000031d4       ??_C@_0N@BFDKEKMB@g_arenasFile?$AA@ 2003e1d4     g_bot.obj
 0002:000031e4       ??_C@_03HBNNNHNM@map?$AA@  2003e1e4     g_bot.obj
 0002:000031e8       ??_C@_0CD@DFNICLKJ@play?5sound?1player?1announce?1?$CFs?4wa@ 2003e1e8     g_bot.obj
 0002:0000320c       ??_C@_07DLHCIBDH@default?$AA@ 2003e20c     g_bot.obj
 0002:00003214       ??_C@_0BE@HKGNLKGC@addbot?5?$CFs?5?$CFf?5?$CFs?5?$CFi?6?$AA@ 2003e214     g_bot.obj
 0002:00003228       ??_C@_04MEMAJGDJ@name?$AA@ 2003e228     g_bot.obj
 0002:00003230       ??_C@_08CKHMKINC@kick?5?$CFs?6?$AA@ 2003e230     g_bot.obj
 0002:0000323c       ??_C@_0BJ@JBHOCGJI@?$FO3Unable?5to?5delay?5spawn?6?$AA@ 2003e23c     g_bot.obj
 0002:00003258       ??_C@_04KADBPNCB@team?$AA@ 2003e258     g_bot.obj
 0002:00003260       ??_C@_05ODMCMJAJ@skill?$AA@ 2003e260     g_bot.obj
 0002:00003268       ??_C@_0O@HKBPPLKD@characterfile?$AA@ 2003e268     g_bot.obj
 0002:00003278       ??_C@_0BJ@GPLOPMDF@?$CF?916s?5?$CF?916s?5?$CF?920s?5?$CF?920s?6?$AA@ 2003e278     g_bot.obj
 0002:00003294       ??_C@_0BB@OCLCLNLB@bots?1default_c?4c?$AA@ 2003e294     g_bot.obj
 0002:000032a8       ??_C@_06GJLCKOIA@aifile?$AA@ 2003e2a8     g_bot.obj
 0002:000032b0       ??_C@_0O@CLCMCGPB@visor?1default?$AA@ 2003e2b0     g_bot.obj
 0002:000032c0       ??_C@_07PNOKIGNH@funname?$AA@ 2003e2c0     g_bot.obj
 0002:000032c8       ??_C@_0O@PCBPGDGA@UnnamedPlayer?$AA@ 2003e2c8     g_bot.obj
 0002:000032d8       ??_C@_0EB@OHFELCCO@?$FO1name?5?5?5?5?5?5?5?5?5?5?5?5?5model?5?5?5?5?5?5?5?5@ 2003e2d8     g_bot.obj
 0002:0000331c       ??_C@_0BG@FOPKNLEB@addbot?5?$CFs?5?$CFf?5free?5?$CFi?6?$AA@ 2003e31c     g_bot.obj
 0002:00003334       ??_C@_01BMBHCPLG@5?$AA@    2003e334     g_bot.obj
 0002:00003338       ??_C@_0BA@KCNHFFOD@?$CFi?5bots?5parsed?6?$AA@ 2003e338     g_bot.obj
 0002:00003348       ??_C@_04NONLJGOA@?4bot?$AA@ 2003e348     g_bot.obj
 0002:00003350       ??_C@_0BB@LMBKKAOC@scripts?1bots?4txt?$AA@ 2003e350     g_bot.obj
 0002:00003364       ??_C@_0L@IDJNDIMJ@g_botsFile?$AA@ 2003e364     g_bot.obj
 0002:00003370       ??_C@_0L@BKCPIMBP@bot_enable?$AA@ 2003e370     g_bot.obj
 0002:0000337c       ??_C@_04OOIACBCD@bots?$AA@ 2003e37c     g_bot.obj
 0002:00003384       ??_C@_08FACPJMEJ@training?$AA@ 2003e384     g_bot.obj
 0002:00003390       ??_C@_07BELCMIIP@special?$AA@ 2003e390     g_bot.obj
 0002:00003398       ??_C@_09KPHKOKCC@timelimit?$AA@ 2003e398     g_bot.obj
 0002:000033a4       ??_C@_09GCIEGDDN@fraglimit?$AA@ 2003e3a4     g_bot.obj
 0002:000033b0       ??_C@_0P@IGNPDGBD@bot_minplayers?$AA@ 2003e3b0     g_bot.obj
 0002:000033c0       ??_C@_05CEDINIPN@?$CF5?42f?$AA@ 2003e3c0     g_bot.obj
 0002:000033c8       ??_C@_0FB@BKCBGING@?$FO1Start?5server?5with?5more?5?8open?8?5@ 2003e3c8     g_bot.obj
 0002:0000341c       ??_C@_0DE@MKFCEMGM@?$FO1Unable?5to?5add?5bot?4?5?5All?5player@ 2003e41c     g_bot.obj
 0002:00003450       ??_C@_0CG@GFPKDAFH@?$FO1Error?3?5bot?5has?5no?5aifile?5speci@ 2003e450     g_bot.obj
 0002:00003478       ??_C@_06KEONFOCA@color2?$AA@ 2003e478     g_bot.obj
 0002:00003480       ??_C@_01FAMBOPH@4?$AA@     2003e480     g_bot.obj
 0002:00003484       ??_C@_06IPMAANOD@color1?$AA@ 2003e484     g_bot.obj
 0002:0000348c       ??_C@_04ICKCIGNO@male?$AA@ 2003e48c     g_bot.obj
 0002:00003494       ??_C@_06LFOIHHME@gender?$AA@ 2003e494     g_bot.obj
 0002:0000349c       ??_C@_0P@JMIBMNM@team_headmodel?$AA@ 2003e49c     g_bot.obj
 0002:000034ac       ??_C@_09DHBBGOBJ@headmodel?$AA@ 2003e4ac     g_bot.obj
 0002:000034b8       ??_C@_0L@KEDOKIKJ@team_model?$AA@ 2003e4b8     g_bot.obj
 0002:000034c4       ??_C@_02PEECMOAB@90?$AA@   2003e4c4     g_bot.obj
 0002:000034c8       ??_C@_02PONMODAL@70?$AA@   2003e4c8     g_bot.obj
 0002:000034cc       ??_C@_08HBHLIHAM@handicap?$AA@ 2003e4cc     g_bot.obj
 0002:000034d8       ??_C@_02PNFIDHGF@50?$AA@   2003e4d8     g_bot.obj
 0002:000034dc       ??_C@_05NBLIHODN@?$CF1?42f?$AA@ 2003e4dc     g_bot.obj
 0002:000034e4       ??_C@_05DGPADKBM@snaps?$AA@ 2003e4e4     g_bot.obj
 0002:000034ec       ??_C@_04HCCHHEEF@rate?$AA@ 2003e4ec     g_bot.obj
 0002:000034f4       ??_C@_05GFEIOEMO@25000?$AA@ 2003e4f4     g_bot.obj
 0002:000034fc       ??_C@_0BP@NGBNIFAK@?$FO1Error?3?5Bot?5?8?$CFs?8?5not?5defined?6?$AA@ 2003e4fc     g_bot.obj
 0002:0000351c       ??_C@_0N@GEFCGCPK@loaddefered?6?$AA@ 2003e51c     g_bot.obj
 0002:0000352c       ??_C@_0L@FBHMLJNH@cl_running?$AA@ 2003e52c     g_bot.obj
 0002:00003538       ??_C@_0ED@LBGLLNI@Usage?3?5Addbot?5?$DMbotname?$DO?5?$FLskill?51@ 2003e538     g_bot.obj
 0002:0000357c       ??_C@_08MDEJHCAF@nohumans?$AA@ 2003e57c     g_client.obj
 0002:00003588       ??_C@_06JHOFIDHH@nobots?$AA@ 2003e588     g_client.obj
 0002:00003590       ??_C@_0BH@IGAFCIL@info_player_deathmatch?$AA@ 2003e590     g_client.obj
 0002:000035a8       __real@41100000            2003e5a8     g_client.obj
 0002:000035ac       ??_C@_0BM@DGHFFJBI@Couldn?8t?5find?5a?5spawn?5point?$AA@ 2003e5ac     g_client.obj
 0002:000035c8       ??_C@_07ILHJIGAO@bodyque?$AA@ 2003e5c8     g_client.obj
 0002:000035d0       ??_C@_0BO@IFHBFKHP@ClientUserinfoChanged?3?5?$CFi?5?$CFs?6?$AA@ 2003e5d0     g_client.obj
 0002:000035f0       ??_C@_0GA@GJMCBBDN@n?2?$CFs?2t?2?$CFi?2model?2?$CFs?2hmodel?2?$CFs?2g_r@ 2003e5f0     g_client.obj
 0002:00003650       ??_C@_0EO@IELCCCFM@n?2?$CFs?2t?2?$CFi?2model?2?$CFs?2hmodel?2?$CFs?2c1?2@ 2003e650     g_client.obj
 0002:000036a0       ??_C@_0L@CPNMJIBN@g_blueteam?$AA@ 2003e6a0     g_client.obj
 0002:000036ac       ??_C@_09LPNHELAH@g_redteam?$AA@ 2003e6ac     g_client.obj
 0002:000036b8       ??_C@_0M@IKKMOBIP@teamoverlay?$AA@ 2003e6b8     g_client.obj
 0002:000036c4       ??_C@_01OJONOECF@b?$AA@    2003e6c4     g_client.obj
 0002:000036c8       ??_C@_01KDCPPGHE@r?$AA@    2003e6c8     g_client.obj
 0002:000036cc       ??_C@_0BM@IJFFLPEN@print?5?$CC?$CFs?$FO7?5renamed?5to?5?$CFs?6?$CC?$AA@ 2003e6cc     g_client.obj
 0002:000036e8       ??_C@_0L@PGGJLCHO@scoreboard?$AA@ 2003e6e8     g_client.obj
 0002:000036f4       ??_C@_0BA@PKAEEJJB@cg_predictItems?$AA@ 2003e6f4     g_client.obj
 0002:00003704       ??_C@_09IPAEKDAI@localhost?$AA@ 2003e704     g_client.obj
 0002:00003710       ??_C@_02GIIHKPLE@ip?$AA@   2003e710     g_client.obj
 0002:00003714       ??_C@_0O@JBDOHEEF@?2name?2badinfo?$AA@ 2003e714     g_client.obj
 0002:00003724       ??_C@_0BD@LEMBFDEN@ClientConnect?3?5?$CFi?6?$AA@ 2003e724     g_client.obj
 0002:00003738       ??_C@_0BB@GKDCDICO@Invalid?5password?$AA@ 2003e738     g_client.obj
 0002:0000374c       ??_C@_04CGFJFPFD@none?$AA@ 2003e74c     g_client.obj
 0002:00003754       ??_C@_08NLHBPEGP@password?$AA@ 2003e754     g_client.obj
 0002:00003760       ??_C@_0CB@BAJJGAM@You?5are?5banned?5from?5this?5server?4@ 2003e760     g_client.obj
 0002:00003784       ??_C@_0N@GGGDBMDO@disconnected?$AA@ 2003e784     g_client.obj
 0002:00003794       ??_C@_0P@BKKOFHJN@map_restart?50?6?$AA@ 2003e794     g_client.obj
 0002:000037a4       ??_C@_0BG@PJMKPFGA@ClientDisconnect?3?5?$CFi?6?$AA@ 2003e7a4     g_client.obj
 0002:000037bc       ??_C@_06GKMNIMJC@persid?$AA@ 2003e7bc     g_client.obj
 0002:000037c4       ??_C@_0BB@CFJJMGPN@save?2current?4psw?$AA@ 2003e7c4     g_client.obj
 0002:000037d8       ??_C@_0N@PJIDFOJJ@Save_Loading?$AA@ 2003e7d8     g_client.obj
 0002:000037e8       ??_C@_06BALNJMNP@player?$AA@ 2003e7e8     g_client.obj
 0002:000037f0       ??_C@_09OKMOBHEE@Harvester?$AA@ 2003e7f0     g_cmds.obj
 0002:000037fc       ??_C@_08JKIFACLF@Overload?$AA@ 2003e7fc     g_cmds.obj
 0002:00003808       ??_C@_0N@FCMBHKKN@One?5Flag?5CTF?$AA@ 2003e808     g_cmds.obj
 0002:00003818       ??_C@_0BB@OOIHNFAG@Capture?5the?5Flag?$AA@ 2003e818     g_cmds.obj
 0002:0000382c       ??_C@_0BA@KHHNIIJE@Team?5Deathmatch?$AA@ 2003e82c     g_cmds.obj
 0002:0000383c       ??_C@_0O@NNAOEDOE@Single?5Player?$AA@ 2003e83c     g_cmds.obj
 0002:0000384c       ??_C@_0L@FENDKKGN@Tournament?$AA@ 2003e84c     g_cmds.obj
 0002:00003858       ??_C@_0N@PCEMCJC@Free?5For?5All?$AA@ 2003e858     g_cmds.obj
 0002:00003868       ??_C@_06MHOMHIDM@report?$AA@ 2003e868     g_cmds.obj
 0002:00003870       ??_C@_0BD@JFEBCONJ@search?5and?5destroy?$AA@ 2003e870     g_cmds.obj
 0002:00003884       ??_C@_0P@BDHIOPIB@guard?5location?$AA@ 2003e884     g_cmds.obj
 0002:00003894       ??_C@_08NJPHEENP@cover?5me?$AA@ 2003e894     g_cmds.obj
 0002:000038a0       ??_C@_09NKPGKNPA@come?5here?$AA@ 2003e8a0     g_cmds.obj
 0002:000038ac       ??_C@_0BD@BGOJJIFC@hold?5this?5position?$AA@ 2003e8ac     g_cmds.obj
 0002:000038c0       ??_C@_0BD@BEPMJBOM@hold?5your?5position?$AA@ 2003e8c0     g_cmds.obj
 0002:000038d4       ??_C@_0BC@BADCIGBJ@scores?5?$CFi?5?$CFi?5?$CFi?$CFs?$AA@ 2003e8d4     g_cmds.obj
 0002:000038e8       ??_C@_0CL@EAFNPFGA@?5?$CFi?5?$CFi?5?$CFi?5?$CFi?5?$CFi?5?$CFi?5?$CFi?5?$CFi?5?$CFi?5?$CFi?5?$CF@ 2003e8e8     g_cmds.obj
 0002:00003914       ??_C@_0DA@KHFNLLBI@print?5?$CCYou?5must?5be?5alive?5to?5use?5@ 2003e914     g_cmds.obj
 0002:00003944       ??_C@_0DA@DLJNDFCJ@print?5?$CCCheats?5are?5not?5enabled?5on@ 2003e944     g_cmds.obj
 0002:00003974       ??_C@_0CG@OFMIDLCG@print?5?$CCUser?5?$CFs?5is?5not?5on?5the?5ser@ 2003e974     g_cmds.obj
 0002:0000399c       ??_C@_0BN@FGLBNIJH@print?5?$CCBad?5client?5slot?3?5?$CFi?6?$CC?$AA@ 2003e99c     g_cmds.obj
 0002:000039bc       ??_C@_0CB@IOMDOEKP@print?5?$CCClient?5?$CFi?5is?5not?5active?6?$CC@ 2003e9bc     g_cmds.obj
 0002:000039e0       ??_C@_06CHFMFANC@assist?$AA@ 2003e9e0     g_cmds.obj
 0002:000039e8       ??_C@_0O@DCIHIELO@gauntletaward?$AA@ 2003e9e8     g_cmds.obj
 0002:000039f8       ??_C@_0L@GBLMIJON@impressive?$AA@ 2003e9f8     g_cmds.obj
 0002:00003a04       ??_C@_09MBDMPFOO@excellent?$AA@ 2003ea04     g_cmds.obj
 0002:00003a10       ??_C@_05JJEJIJLL@armor?$AA@ 2003ea10     g_cmds.obj
 0002:00003a18       ??_C@_04PGKJFGNK@ammo?$AA@ 2003ea18     g_cmds.obj
 0002:00003a20       ??_C@_07PKKCMMCH@weapons?$AA@ 2003ea20     g_cmds.obj
 0002:00003a28       ??_C@_03NFKEKGGK@all?$AA@  2003ea28     g_cmds.obj
 0002:00003a2c       ??_C@_0L@GPCEIOHM@print?5?$CC?$CFs?$CC?$AA@ 2003ea2c     g_cmds.obj
 0002:00003a38       ??_C@_0M@MCLKHHDH@godmode?5ON?6?$AA@ 2003ea38     g_cmds.obj
 0002:00003a44       ??_C@_0N@POKEKLLJ@godmode?5OFF?6?$AA@ 2003ea44     g_cmds.obj
 0002:00003a54       ??_C@_0N@OBJNJDJO@notarget?5ON?6?$AA@ 2003ea54     g_cmds.obj
 0002:00003a64       ??_C@_0O@FBINJHBB@notarget?5OFF?6?$AA@ 2003ea64     g_cmds.obj
 0002:00003a74       ??_C@_0L@MDMNIPJN@noclip?5ON?6?$AA@ 2003ea74     g_cmds.obj
 0002:00003a80       ??_C@_0M@MIKGJGLH@noclip?5OFF?6?$AA@ 2003ea80     g_cmds.obj
 0002:00003a8c       ??_C@_0CP@EMMMGMNN@print?5?$CCMust?5be?5in?5g_gametype?50?5f@ 2003ea8c     g_cmds.obj
 0002:00003abc       ??_C@_0BO@HCBBHHLG@cp?5?$CC?$CFs?$FO7?5joined?5the?5battle?4?6?$CC?$AA@ 2003eabc     g_cmds.obj
 0002:00003adc       ??_C@_0CC@CKOABLEC@cp?5?$CC?$CFs?$FO7?5joined?5the?5spectators?4?6@ 2003eadc     g_cmds.obj
 0002:00003b00       ??_C@_0CB@MALDLCDE@cp?5?$CC?$CFs?$FO7?5joined?5the?5blue?5team?4?6?$CC@ 2003eb00     g_cmds.obj
 0002:00003b24       ??_C@_0CA@FCJONFGI@cp?5?$CC?$CFs?$FO7?5joined?5the?5red?5team?4?6?$CC?$AA@ 2003eb24     g_cmds.obj
 0002:00003b44       ??_C@_0CG@BNBAGBGM@cp?5?$CCBlue?5team?5has?5too?5many?5playe@ 2003eb44     g_cmds.obj
 0002:00003b6c       ??_C@_0CF@OMMGDNAE@cp?5?$CCRed?5team?5has?5too?5many?5player@ 2003eb6c     g_cmds.obj
 0002:00003b94       ??_C@_01LKDEMHDF@s?$AA@    2003eb94     g_cmds.obj
 0002:00003b98       ??_C@_09FNMDCDOI@spectator?$AA@ 2003eb98     g_cmds.obj
 0002:00003ba4       ??_C@_07NNICNDK@follow2?$AA@ 2003eba4     g_cmds.obj
 0002:00003bac       ??_C@_07CGPFHOPJ@follow1?$AA@ 2003ebac     g_cmds.obj
 0002:00003bb4       ??_C@_05DBKDOICH@score?$AA@ 2003ebb4     g_cmds.obj
 0002:00003bbc       ??_C@_0DM@NEIAOCHE@print?5?$CCMay?5not?5switch?5teams?5more@ 2003ebbc     g_cmds.obj
 0002:00003bf8       ??_C@_0BI@PDLENAMN@print?5?$CCSpectator?5team?6?$CC?$AA@ 2003ebf8     g_cmds.obj
 0002:00003c10       ??_C@_0BD@COAKLBJE@print?5?$CCFree?5team?6?$CC?$AA@ 2003ec10     g_cmds.obj
 0002:00003c24       ??_C@_0BC@HGAENHGG@print?5?$CCRed?5team?6?$CC?$AA@ 2003ec24     g_cmds.obj
 0002:00003c38       ??_C@_0BD@PGCCOEMO@print?5?$CCBlue?5team?6?$CC?$AA@ 2003ec38     g_cmds.obj
 0002:00003c4c       ??_C@_0BO@KJIMFOBJ@Cmd_FollowCycle_f?3?5bad?5dir?5?$CFi?$AA@ 2003ec4c     g_cmds.obj
 0002:00003c6c       ??_C@_0O@CCPEDGNK@?$CFs?5?$CC?$CFs?$CFc?$CFc?$CFs?$CC?$AA@ 2003ec6c     g_cmds.obj
 0002:00003c7c       ??_C@_05JMJKDBEJ@?$CFs?$CFs?6?$AA@ 2003ec7c     g_cmds.obj
 0002:00003c84       ??_C@_0O@FGLMEIPO@?$BJ?$CI?$CFs?$CFc?$CFc?$BJ?$CJ?$BJ?3?5?$AA@ 2003ec84     g_cmds.obj
 0002:00003c94       ??_C@_0BD@LHDLGCNL@?$BJ?$CI?$CFs?$CFc?$CFc?$BJ?$CJ?5?$CI?$CFs?$CJ?$BJ?3?5?$AA@ 2003ec94     g_cmds.obj
 0002:00003ca8       ??_C@_0BB@OADDLILN@sayteam?3?5?$CFs?3?5?$CFs?6?$AA@ 2003eca8     g_cmds.obj
 0002:00003cbc       ??_C@_0O@FNNABOLL@?$BJ?$FL?$CFs?$CFc?$CFc?$BJ?$FN?$BJ?3?5?$AA@ 2003ecbc     g_cmds.obj
 0002:00003ccc       ??_C@_0BD@GLHHAOBD@?$BJ?$FL?$CFs?$CFc?$CFc?$BJ?$FN?5?$CI?$CFs?$CJ?$BJ?3?5?$AA@ 2003eccc     g_cmds.obj
 0002:00003ce0       ??_C@_09GPHNFPKO@?$CFs?$CFc?$CFc?$BJ?3?5?$AA@ 2003ece0     g_cmds.obj
 0002:00003cec       ??_C@_0N@PIPLJLA@say?3?5?$CFs?3?5?$CFs?6?$AA@ 2003ecec     g_cmds.obj
 0002:00003cfc       ??_C@_0BE@DNAOGBCN@tell?3?5?$CFs?5to?5?$CFs?3?5?$CFs?6?$AA@ 2003ecfc     g_cmds.obj
 0002:00003d10       ??_C@_0P@GLNDPPNN@?$CFs?5?$CFd?5?$CFd?5?$CFd?5?$CFs?$AA@ 2003ed10     g_cmds.obj
 0002:00003d20       ??_C@_05LBAAHPBE@vchat?$AA@ 2003ed20     g_cmds.obj
 0002:00003d28       ??_C@_05BLGJOHFB@vtell?$AA@ 2003ed28     g_cmds.obj
 0002:00003d30       ??_C@_06FPNOEFND@vtchat?$AA@ 2003ed30     g_cmds.obj
 0002:00003d38       ??_C@_0O@PGEGBHPB@voice?3?5?$CFs?5?$CFs?6?$AA@ 2003ed38     g_cmds.obj
 0002:00003d48       ??_C@_0BF@KNCPEACI@vtell?3?5?$CFs?5to?5?$CFs?3?5?$CFs?6?$AA@ 2003ed48     g_cmds.obj
 0002:00003d60       ??_C@_06GEFAPDPP@praise?$AA@ 2003ed60     g_cmds.obj
 0002:00003d68       ??_C@_0M@MIDAEIOB@print?5?$CC?$CFs?6?$CC?$AA@ 2003ed68     g_cmds.obj
 0002:00003d78       ??_C@_0KJ@BAKDCPAJ@print?5?$CCVote?5commands?5are?3?5map_re@ 2003ed78     g_cmds.obj
 0002:00003e24       ??_C@_0BO@PMPHENKD@print?5?$CCInvalid?5vote?5string?4?6?$CC?$AA@ 2003ee24     g_cmds.obj
 0002:00003e44       ??_C@_0BL@LDCKNKB@print?5?$CC?$CFs?5called?5a?5vote?4?6?$CC?$AA@ 2003ee44     g_cmds.obj
 0002:00003e60       ??_C@_07CMIPDAGF@?$CFs?5?$CC?$CFs?$CC?$AA@ 2003ee60     g_cmds.obj
 0002:00003e68       ??_C@_0N@NPFCFAAA@vstr?5nextmap?$AA@ 2003ee68     g_cmds.obj
 0002:00003e78       ??_C@_0BK@IOHPLFMM@print?5?$CCnextmap?5not?5set?4?6?$CC?$AA@ 2003ee78     g_cmds.obj
 0002:00003e94       ??_C@_0BI@EHIPCLJD@?$CFs?5?$CFs?$DL?5set?5nextmap?5?$CC?$CFs?$CC?$AA@ 2003ee94     g_cmds.obj
 0002:00003eac       ??_C@_0BL@HOKFFIC@print?5?$CCInvalid?5gametype?4?6?$CC?$AA@ 2003eeac     g_cmds.obj
 0002:00003ec8       ??_C@_05DNIIFBMG@?$CFs?5?$CFs?$AA@ 2003eec8     g_cmds.obj
 0002:00003ed0       ??_C@_05DIALNFFA@?$CFs?5?$CFd?$AA@ 2003eed0     g_cmds.obj
 0002:00003ed8       ??_C@_03OFAPEBGM@?$CFs?6?$AA@ 2003eed8     g_cmds.obj
 0002:00003edc       ??_C@_0L@LPENDGCI@g_doWarmup?$AA@ 2003eedc     g_cmds.obj
 0002:00003ee8       ??_C@_0L@NBDAICFL@clientkick?$AA@ 2003eee8     g_cmds.obj
 0002:00003ef4       ??_C@_04FNIJDBCC@kick?$AA@ 2003eef4     g_cmds.obj
 0002:00003efc       ??_C@_07MCHHMPMB@nextmap?$AA@ 2003eefc     g_cmds.obj
 0002:00003f04       ??_C@_0M@NBIMEKNE@map_restart?$AA@ 2003ef04     g_cmds.obj
 0002:00003f10       ??_C@_0DC@KBNBHNDJ@print?5?$CCNot?5allowed?5to?5call?5a?5vot@ 2003ef10     g_cmds.obj
 0002:00003f44       ??_C@_0DG@PHEGLJKA@print?5?$CCYou?5have?5called?5the?5maxim@ 2003ef44     g_cmds.obj
 0002:00003f7c       ??_C@_0CI@IOOGHLKJ@print?5?$CCA?5vote?5is?5already?5in?5prog@ 2003ef7c     g_cmds.obj
 0002:00003fa4       ??_C@_0CC@MKEOLBNH@print?5?$CCVoting?5not?5allowed?5here?4?6@ 2003efa4     g_cmds.obj
 0002:00003fc8       ??_C@_0BE@KBOHCPHM@print?5?$CCVote?5cast?4?6?$CC?$AA@ 2003efc8     g_cmds.obj
 0002:00003fdc       ??_C@_0CL@KIACKMGK@print?5?$CCNot?5allowed?5to?5vote?5as?5sp@ 2003efdc     g_cmds.obj
 0002:00004008       ??_C@_0BM@JAOFDBMB@print?5?$CCVote?5already?5cast?4?6?$CC?$AA@ 2003f008     g_cmds.obj
 0002:00004024       ??_C@_0BO@JJMMHDFC@print?5?$CCNo?5vote?5in?5progress?4?6?$CC?$AA@ 2003f024     g_cmds.obj
 0002:00004044       ??_C@_0DC@JMKMFJGE@print?5?$CCTeam?5vote?5commands?5are?3?5l@ 2003f044     g_cmds.obj
 0002:00004078       ??_C@_0DA@BDICJJF@print?5?$CC?$CFs?5is?5not?5a?5valid?5player?5@ 2003f078     g_cmds.obj
 0002:000040a8       ??_C@_0CA@ENAIANHJ@print?5?$CC?$CFs?5called?5a?5team?5vote?4?6?$CC?$AA@ 2003f0a8     g_cmds.obj
 0002:000040c8       ??_C@_06DFLPLEOP@leader?$AA@ 2003f0c8     g_cmds.obj
 0002:000040d0       ??_C@_0DL@IFNKHCNG@print?5?$CCYou?5have?5called?5the?5maxim@ 2003f0d0     g_cmds.obj
 0002:0000410c       ??_C@_0CN@INNKCADJ@print?5?$CCA?5team?5vote?5is?5already?5in@ 2003f10c     g_cmds.obj
 0002:0000413c       ??_C@_0BJ@DCKHGAB@print?5?$CCTeam?5vote?5cast?4?6?$CC?$AA@ 2003f13c     g_cmds.obj
 0002:00004158       ??_C@_0CB@LGGMNIHI@print?5?$CCTeam?5vote?5already?5cast?4?6?$CC@ 2003f158     g_cmds.obj
 0002:0000417c       ??_C@_0CD@BLODMPFK@print?5?$CCNo?5team?5vote?5in?5progress?4@ 2003f17c     g_cmds.obj
 0002:000041a0       ??_C@_0CF@GJFHLKOA@print?5?$CCusage?3?5setviewpos?5x?5y?5z?5y@ 2003f1a0     g_cmds.obj
 0002:000041c8       ??_C@_0BI@FJNBDMBJ@print?5?$CCunknown?5cmd?5?$CFs?6?$CC?$AA@ 2003f1c8     g_cmds.obj
 0002:000041e0       ??_C@_05BLKJBNOD@stats?$AA@ 2003f1e0     g_cmds.obj
 0002:000041e8       ??_C@_05LPMGNCEN@laser?$AA@ 2003f1e8     g_cmds.obj
 0002:000041f0       ??_C@_0L@HGCOMEEN@flashlight?$AA@ 2003f1f0     g_cmds.obj
 0002:000041fc       ??_C@_04NIDJFNBE@info?$AA@ 2003f1fc     g_cmds.obj
 0002:00004204       ??_C@_0L@CCEFBCKP@setviewpos?$AA@ 2003f204     g_cmds.obj
 0002:00004210       ??_C@_02DPGMDCM@gc?$AA@    2003f210     g_cmds.obj
 0002:00004214       ??_C@_08OLLMCBNG@teamvote?$AA@ 2003f214     g_cmds.obj
 0002:00004220       ??_C@_0N@JDBKAFAM@callteamvote?$AA@ 2003f220     g_cmds.obj
 0002:00004230       ??_C@_04GHHIKFLG@vote?$AA@ 2003f230     g_cmds.obj
 0002:00004238       ??_C@_08NNMLCPB@callvote?$AA@ 2003f238     g_cmds.obj
 0002:00004244       ??_C@_05LCFPHLEE@where?$AA@ 2003f244     g_cmds.obj
 0002:0000424c       ??_C@_0L@FFKCNEMH@followprev?$AA@ 2003f24c     g_cmds.obj
 0002:00004258       ??_C@_0L@GBHEMAKD@follownext?$AA@ 2003f258     g_cmds.obj
 0002:00004264       ??_C@_06HNJAFFAK@follow?$AA@ 2003f264     g_cmds.obj
 0002:0000426c       ??_C@_09EFOFPGPE@levelshot?$AA@ 2003f26c     g_cmds.obj
 0002:00004278       ??_C@_06IHODGGMJ@noclip?$AA@ 2003f278     g_cmds.obj
 0002:00004280       ??_C@_08HPLPOCJL@notarget?$AA@ 2003f280     g_cmds.obj
 0002:0000428c       ??_C@_03DKFAMNOH@god?$AA@  2003f28c     g_cmds.obj
 0002:00004290       ??_C@_04BMBHJADG@give?$AA@ 2003f290     g_cmds.obj
 0002:00004298       ??_C@_06JMKGCPMO@votell?$AA@ 2003f298     g_cmds.obj
 0002:000042a0       ??_C@_0L@GKKIAMHC@vosay_team?$AA@ 2003f2a0     g_cmds.obj
 0002:000042ac       ??_C@_05EGEGDMMG@vosay?$AA@ 2003f2ac     g_cmds.obj
 0002:000042b4       ??_C@_09CPIJOHHK@vsay_team?$AA@ 2003f2b4     g_cmds.obj
 0002:000042c0       ??_C@_04IBCNHBFH@vsay?$AA@ 2003f2c0     g_cmds.obj
 0002:000042c8       ??_C@_04LBPCFPDD@tell?$AA@ 2003f2c8     g_cmds.obj
 0002:000042d0       ??_C@_08NBFNGOHN@say_team?$AA@ 2003f2d0     g_cmds.obj
 0002:000042dc       ??_C@_03BANJEMDJ@say?$AA@  2003f2dc     g_cmds.obj
 0002:000042e0       ??_C@_0M@BGKKOPE@MOD_GRAPPLE?$AA@ 2003f2e0     g_combat.obj
 0002:000042ec       ??_C@_0BB@JHNHPELL@MOD_TRIGGER_HURT?$AA@ 2003f2ec     g_combat.obj
 0002:00004300       ??_C@_0BB@HMLMKPCA@MOD_TARGET_LASER?$AA@ 2003f300     g_combat.obj
 0002:00004314       ??_C@_0M@NECNIJDJ@MOD_SUICIDE?$AA@ 2003f314     g_combat.obj
 0002:00004320       ??_C@_0M@JONLOPJN@MOD_FALLING?$AA@ 2003f320     g_combat.obj
 0002:0000432c       ??_C@_0N@IMHJNLFF@MOD_TELEFRAG?$AA@ 2003f32c     g_combat.obj
 0002:0000433c       ??_C@_09GPMGMMBL@MOD_CRUSH?$AA@ 2003f33c     g_combat.obj
 0002:00004348       ??_C@_08LEPCJCFO@MOD_LAVA?$AA@ 2003f348     g_combat.obj
 0002:00004354       ??_C@_09KBJPPHD@MOD_SLIME?$AA@ 2003f354     g_combat.obj
 0002:00004360       ??_C@_09MAPLCDLI@MOD_WATER?$AA@ 2003f360     g_combat.obj
 0002:0000436c       ??_C@_0P@OHBIPEGK@MOD_BFG_SPLASH?$AA@ 2003f36c     g_combat.obj
 0002:0000437c       ??_C@_07EOLOFKFM@MOD_BFG?$AA@ 2003f37c     g_combat.obj
 0002:00004384       ??_C@_0O@GLCOIAIP@MOD_LIGHTNING?$AA@ 2003f384     g_combat.obj
 0002:00004394       ??_C@_0M@BHIJMBBE@MOD_RAILGUN?$AA@ 2003f394     g_combat.obj
 0002:000043a0       ??_C@_0BC@PIBHLJKK@MOD_PLASMA_SPLASH?$AA@ 2003f3a0     g_combat.obj
 0002:000043b4       ??_C@_0L@JPCJGHHF@MOD_PLASMA?$AA@ 2003f3b4     g_combat.obj
 0002:000043c0       ??_C@_0BC@KJDNONBC@MOD_ROCKET_SPLASH?$AA@ 2003f3c0     g_combat.obj
 0002:000043d4       ??_C@_0L@FIOJJPEO@MOD_ROCKET?$AA@ 2003f3d4     g_combat.obj
 0002:000043e0       ??_C@_0BD@PLGCKMBF@MOD_GRENADE_SPLASH?$AA@ 2003f3e0     g_combat.obj
 0002:000043f4       ??_C@_0M@KDJNKEED@MOD_GRENADE?$AA@ 2003f3f4     g_combat.obj
 0002:00004400       ??_C@_0P@DNHADEBJ@MOD_MACHINEGUN?$AA@ 2003f400     g_combat.obj
 0002:00004410       ??_C@_0N@MJPPIPMF@MOD_GAUNTLET?$AA@ 2003f410     g_combat.obj
 0002:00004420       ??_C@_0M@MIHCLLAH@MOD_SHOTGUN?$AA@ 2003f420     g_combat.obj
 0002:0000442c       ??_C@_0M@BKDMLGAO@MOD_UNKNOWN?$AA@ 2003f42c     g_combat.obj
 0002:00004438       ??_C@_0P@LIDDFKFD@kamikaze?5timer?$AA@ 2003f438     g_combat.obj
 0002:00004448       ??_C@_0BB@JDBGHPJP@team_blueobelisk?$AA@ 2003f448     g_combat.obj
 0002:0000445c       ??_C@_0BA@GIMOGCGC@team_redobelisk?$AA@ 2003f45c     g_combat.obj
 0002:0000446c       ??_C@_0CE@HGPMHBOH@Kill?3?5?$CFi?5?$CFi?5?$CFi?3?5?$CFs?5killed?5?$CFs?5by?5@ 2003f46c     g_combat.obj
 0002:00004490       ??_C@_0P@BDPEDPJP@?$DMbad?5obituary?$DO?$AA@ 2003f490     g_combat.obj
 0002:000044a0       ??_C@_07GECLLGBL@?$DMworld?$DO?$AA@ 2003f4a0     g_combat.obj
 0002:000044a8       ??_C@_0N@HGAIBNNB@?$DMnon?9client?$DO?$AA@ 2003f4a8     g_combat.obj
 0002:000044b8       __real@3fe51eb851eb851f    2003f4b8     g_combat.obj
 0002:000044c0       ??_C@_0CM@LEIIGBFN@?$CFi?3?5client?3?$CFi?5health?3?$CFi?5damage?3?$CF@ 2003f4c0     g_combat.obj
 0002:000044ec       __real@3ba3d70a            2003f4ec     g_combat.obj
 0002:000044f0       __real@402e000000000000    2003f4f0     g_combat.obj
 0002:000044f8       __real@43400000            2003f4f8     g_items.obj
 0002:000044fc       ??_C@_0CA@FLGMIHAB@sound?1items?1kamikazerespawn?4wav?$AA@ 2003f4fc     g_items.obj
 0002:0000451c       ??_C@_0BM@BNLFEEPK@RespawnItem?3?5bad?5teammaster?$AA@ 2003f51c     g_items.obj
 0002:00004538       ??_C@_0N@OCCHADDH@Item?3?5?$CFi?5?$CFs?6?$AA@ 2003f538     g_items.obj
 0002:00004548       __real@4069000000000000    2003f548     g_items.obj
 0002:00004550       __real@4046800000000000    2003f550     g_items.obj
 0002:00004558       ??_C@_0CJ@EMOANFCC@FinishSpawningItem?3?5?$CFs?5startsoli@ 2003f558     g_items.obj
 0002:00004584       __real@45800000            2003f584     g_items.obj
 0002:00004588       ??_C@_0CH@HHMBIMLK@?$FO3WARNING?3?5No?5team_CTF_blueflag?5@ 2003f588     g_items.obj
 0002:000045b0       ??_C@_0CG@DNHJENHJ@?$FO3WARNING?3?5No?5team_CTF_redflag?5i@ 2003f5b0     g_items.obj
 0002:000045d8       ??_C@_0BD@LOGEPNHD@RegisterItem?3?5NULL?$AA@ 2003f5d8     g_items.obj
 0002:000045ec       ??_C@_0BF@PHBDLOMN@?$CFi?5items?5registered?6?$AA@ 2003f5ec     g_items.obj
 0002:00004604       ??_C@_0L@BHNPAADM@disable_?$CFs?$AA@ 2003f604     g_items.obj
 0002:00004610       ??_C@_0O@MNEGCFDN@noglobalsound?$AA@ 2003f610     g_items.obj
 0002:00004620       ??_C@_04PNOAOIAG@wait?$AA@ 2003f620     g_items.obj
 0002:00004628       ??_C@_06NLFCANPD@random?$AA@ 2003f628     g_items.obj
 0002:00004630       __real@c0000000            2003f630     g_items.obj
 0002:00004634       ??_C@_0L@NIHHPBKG@g_rankings?$AA@ 2003f634     g_main.obj
 0002:00004640       ??_C@_0M@HOGKGHBI@pmove_fixed?$AA@ 2003f640     g_main.obj
 0002:0000464c       ??_C@_0BA@EKPBHCCJ@g_smoothClients?$AA@ 2003f64c     g_main.obj
 0002:0000465c       ??_C@_0N@JIFICDHI@g_listEntity?$AA@ 2003f65c     g_main.obj
 0002:0000466c       ??_C@_0M@MECNLONK@g_allowVote?$AA@ 2003f66c     g_main.obj
 0002:00004678       ??_C@_02PFIAKEDG@80?$AA@   2003f678     g_main.obj
 0002:0000467c       ??_C@_09DKNLLEN@com_blood?$AA@ 2003f67c     g_main.obj
 0002:00004688       ??_C@_06IBNENCEO@g_motd?$AA@ 2003f688     g_main.obj
 0002:00004690       ??_C@_0N@CGHOHBHC@g_debugAlloc?$AA@ 2003f690     g_main.obj
 0002:000046a0       ??_C@_0O@JCLHDLKF@g_debugDamage?$AA@ 2003f6a0     g_main.obj
 0002:000046b0       ??_C@_0M@EPOBGCBB@g_debugMove?$AA@ 2003f6b0     g_main.obj
 0002:000046bc       ??_C@_0N@JGEKALLI@g_inactivity?$AA@ 2003f6bc     g_main.obj
 0002:000046cc       ??_C@_0P@JEPDGNEP@g_forcerespawn?$AA@ 2003f6cc     g_main.obj
 0002:000046dc       ??_C@_02PJNFELNH@30?$AA@   2003f6dc     g_main.obj
 0002:000046e0       ??_C@_0BE@CNNPIPEC@g_weaponTeamRespawn?$AA@ 2003f6e0     g_main.obj
 0002:000046f4       ??_C@_0BA@CMOCDPF@g_weaponrespawn?$AA@ 2003f6f4     g_main.obj
 0002:00004704       ??_C@_01EKENIIDA@3?$AA@    2003f704     g_main.obj
 0002:00004708       ??_C@_0N@LCBCFAFA@g_quadfactor?$AA@ 2003f708     g_main.obj
 0002:00004718       ??_C@_04KOJKLCBG@1000?$AA@ 2003f718     g_main.obj
 0002:00004720       ??_C@_0M@PDFGFIOM@g_knockback?$AA@ 2003f720     g_main.obj
 0002:0000472c       ??_C@_03BAAJCDMO@800?$AA@  2003f72c     g_main.obj
 0002:00004730       ??_C@_09HNGNBNKN@g_gravity?$AA@ 2003f730     g_main.obj
 0002:0000473c       ??_C@_03MEIMHAKB@320?$AA@  2003f73c     g_main.obj
 0002:00004740       ??_C@_07KCHPCPJD@g_speed?$AA@ 2003f740     g_main.obj
 0002:00004748       ??_C@_09BJOAODLF@dedicated?$AA@ 2003f748     g_main.obj
 0002:00004754       ??_C@_0L@MLCEEGBP@g_needpass?$AA@ 2003f754     g_main.obj
 0002:00004760       ??_C@_0M@NIKBMNDP@g_filterBan?$AA@ 2003f760     g_main.obj
 0002:0000476c       ??_C@_08NKMDLNHL@g_banIPs?$AA@ 2003f76c     g_main.obj
 0002:00004778       ??_C@_0L@GHAPAPFD@g_password?$AA@ 2003f778     g_main.obj
 0002:00004784       ??_C@_09IPDDEHO@g_logSync?$AA@ 2003f784     g_main.obj
 0002:00004790       ??_C@_09BNLGBMID@games?4log?$AA@ 2003f790     g_main.obj
 0002:0000479c       ??_C@_05PJEIAAGC@g_log?$AA@ 2003f79c     g_main.obj
 0002:000047a4       ??_C@_08HAMOJLDA@g_warmup?$AA@ 2003f7a4     g_main.obj
 0002:000047b0       ??_C@_0BD@CLGJCDLA@g_teamForceBalance?$AA@ 2003f7b0     g_main.obj
 0002:000047c4       ??_C@_0P@PONBNCIE@g_teamAutoJoin?$AA@ 2003f7c4     g_main.obj
 0002:000047d4       ??_C@_0P@IEOFAMLI@g_friendlyFire?$AA@ 2003f7d4     g_main.obj
 0002:000047e4       ??_C@_0BF@LICFCALK@g_synchronousClients?$AA@ 2003f7e4     g_main.obj
 0002:000047fc       ??_C@_0N@FCAHJCDA@capturelimit?$AA@ 2003f7fc     g_main.obj
 0002:0000480c       ??_C@_07GMGCLCAP@dmflags?$AA@ 2003f80c     g_main.obj
 0002:00004814       ??_C@_0BB@JCLDAPBF@g_maxGameClients?$AA@ 2003f814     g_main.obj
 0002:00004828       ??_C@_0L@DFBEGALI@sv_mapname?$AA@ 2003f828     g_main.obj
 0002:00004834       ??_C@_0M@GHMJJAD@g_restarted?$AA@ 2003f834     g_main.obj
 0002:00004840       ??_C@_0M@NKGAKMG@Jan?517?52015?$AA@ 2003f840     g_main.obj
 0002:0000484c       ??_C@_08CLLHAKFA@gamedate?$AA@ 2003f84c     g_main.obj
 0002:00004858       ??_C@_06KOMAFLML@baseq3?$AA@ 2003f858     g_main.obj
 0002:00004860       ??_C@_08HCPAIKAO@gamename?$AA@ 2003f860     g_main.obj
 0002:0000486c       ??_C@_09NFOPKLIK@sv_cheats?$AA@ 2003f86c     g_main.obj
 0002:00004878       ??_C@_0BL@EIPAHDOP@?$CFi?5teams?5with?5?$CFi?5entities?6?$AA@ 2003f878     g_main.obj
 0002:00004894       ??_C@_0CC@FFJICNKE@print?5?$CCServer?3?5?$CFs?5changed?5to?5?$CFs?6@ 2003f894     g_main.obj
 0002:000048b8       ??_C@_0BJ@LMMLDPE@info_player_intermission?$AA@ 2003f8b8     g_main.obj
 0002:000048d4       ??_C@_0O@PKDALKNK@vstr?5nextmap?6?$AA@ 2003f8d4     g_main.obj
 0002:000048e4       ??_C@_09OHCHOIDO@?$CF3i?3?$CFi?$CFi?5?$AA@ 2003f8e4     g_main.obj
 0002:000048f0       ??_C@_0CE@CGGOAMCD@score?3?5?$CFi?5?5ping?3?5?$CFi?5?5client?3?5?$CFi?5@ 2003f8f0     g_main.obj
 0002:00004914       ??_C@_0BB@HEGEAGAN@red?3?$CFi?5?5blue?3?$CFi?6?$AA@ 2003f914     g_main.obj
 0002:00004928       ??_C@_09KHIKBPEI@Exit?3?5?$CFs?6?$AA@ 2003f928     g_main.obj
 0002:00004934       ??_C@_0CE@BHHEOIMM@print?5?$CCBlue?5hit?5the?5capturelimit@ 2003f934     g_main.obj
 0002:00004958       ??_C@_0BC@NGNDEIFJ@Capturelimit?5hit?4?$AA@ 2003f958     g_main.obj
 0002:0000496c       ??_C@_0CD@JENHKKNP@print?5?$CCRed?5hit?5the?5capturelimit?4@ 2003f96c     g_main.obj
 0002:00004990       ??_C@_0CB@FMCEIKLA@print?5?$CC?$CFs?$FO7?5hit?5the?5fraglimit?4?6?$CC@ 2003f990     g_main.obj
 0002:000049b4       ??_C@_0CB@OIEPEJAM@print?5?$CCBlue?5hit?5the?5fraglimit?4?6?$CC@ 2003f9b4     g_main.obj
 0002:000049d8       ??_C@_0P@PJCPOIKO@Fraglimit?5hit?4?$AA@ 2003f9d8     g_main.obj
 0002:000049e8       ??_C@_0CA@KPFPAKGG@print?5?$CCRed?5hit?5the?5fraglimit?4?6?$CC?$AA@ 2003f9e8     g_main.obj
 0002:00004a08       ??_C@_0P@EKMAOGJF@Timelimit?5hit?4?$AA@ 2003fa08     g_main.obj
 0002:00004a18       ??_C@_0BI@GKJLDCNN@print?5?$CCTimelimit?5hit?4?6?$CC?$AA@ 2003fa18     g_main.obj
 0002:00004a30       ??_C@_08FFAHPNKC@Warmup?3?6?$AA@ 2003fa30     g_main.obj
 0002:00004a3c       ??_C@_0CD@EKLBBMMK@print?5?$CC?$CFs?5is?5the?5new?5team?5leader@ 2003fa3c     g_main.obj
 0002:00004a60       ??_C@_0CH@IFAGPGDJ@print?5?$CC?$CFs?5is?5not?5on?5the?5team?5any@ 2003fa60     g_main.obj
 0002:00004a88       ??_C@_0BN@PMDPLBOA@print?5?$CC?$CFs?5is?5not?5connected?6?$CC?$AA@ 2003fa88     g_main.obj
 0002:00004aa8       ??_C@_0BA@JGLONBEK@NULL?5ent?9?$DOthink?$AA@ 2003faa8     g_main.obj
 0002:00004ab8       ??_C@_08JBKNBCEM@?$CF4i?3?5?$CFs?6?$AA@ 2003fab8     g_main.obj
 0002:00004ac4       ??_C@_0BA@MOHNLIKA@com_buildScript?$AA@ 2003fac4     g_main.obj
 0002:00004ad4       ??_C@_0CF@MLCIJBNO@?9?9?9?9?9?9?9?9?9?9?9?9?9?9?9?9?9?9?9?9?9?9?9?9?9?9?9?9?9?9?9?9@ 2003fad4     g_main.obj
 0002:00004afc       ??_C@_0BG@MOMCCAKP@Not?5logging?5to?5disk?4?6?$AA@ 2003fafc     g_main.obj
 0002:00004b14       ??_C@_0O@DEDEBKNJ@InitGame?3?5?$CFs?6?$AA@ 2003fb14     g_main.obj
 0002:00004b24       ??_C@_0DO@BDNDJIG@?9?9?9?9?9?9?9?9?9?9?9?9?9?9?9?9?9?9?9?9?9?9?9?9?9?9?9?9?9?9?9?9@ 2003fb24     g_main.obj
 0002:00004b64       ??_C@_0CE@PLBPIHPI@WARNING?3?5Couldn?8t?5open?5logfile?3?5@ 2003fb64     g_main.obj
 0002:00004b88       ??_C@_0BF@CCJLMEBG@sound?1player?1fry?4wav?$AA@ 2003fb88     g_main.obj
 0002:00004ba0       ??_C@_0O@LOFLFABD@gamedate?3?5?$CFs?6?$AA@ 2003fba0     g_main.obj
 0002:00004bb0       ??_C@_0O@MKINOKNK@gamename?3?5?$CFs?6?$AA@ 2003fbb0     g_main.obj
 0002:00004bc0       ??_C@_0CF@FDKFKNJ@?9?9?9?9?9?9?9?5Game?5Initialization?5?9?9?9?9@ 2003fbc0     g_main.obj
 0002:00004be8       ??_C@_0P@OFNEJLIL@ShutdownGame?3?6?$AA@ 2003fbe8     g_main.obj
 0002:00004bf8       ??_C@_0BI@EOKPGBAF@?$DN?$DN?$DN?$DN?5ShutdownGame?5?$DN?$DN?$DN?$DN?6?$AA@ 2003fbf8     g_main.obj
 0002:00004c10       ??_C@_0CL@HPAAECKJ@G_Alloc?3?5failed?5on?5allocation?5of@ 2003fc10     g_mem.obj
 0002:00004c3c       ??_C@_0BP@CMDJHEKJ@G_Alloc?5of?5?$CFi?5bytes?5?$CI?$CFi?5left?$CJ?6?$AA@ 2003fc3c     g_mem.obj
 0002:00004c5c       ??_C@_0DC@GFNDCLPP@Game?5memory?5status?3?5?$CFi?5out?5of?5?$CFi@ 2003fc5c     g_mem.obj
 0002:00004c90       __real@43c80000            2003fc90     g_misc.obj
 0002:00004c94       ??_C@_0CO@BGNILIGB@Couldn?8t?5find?5target?5for?5misc_pa@ 2003fc94     g_misc.obj
 0002:00004cc4       ??_C@_04FBAPEKPH@roll?$AA@ 2003fcc4     g_misc.obj
 0002:00004ccc       __real@3c8efa35            2003fccc     g_misc.obj
 0002:00004cd0       __real@44fa0000            2003fcd0     g_missile.obj
 0002:00004cd4       ??_C@_06BAPMGMJB@plasma?$AA@ 2003fcd4     g_missile.obj
 0002:00004cdc       ??_C@_07JBPBHDIL@grenade?$AA@ 2003fcdc     g_missile.obj
 0002:00004ce4       ??_C@_03CJHCFFJJ@bfg?$AA@  2003fce4     g_missile.obj
 0002:00004ce8       __real@44610000            2003fce8     g_missile.obj
 0002:00004cec       ??_C@_06NHDMJEKK@rocket?$AA@ 2003fcec     g_missile.obj
 0002:00004cf4       ??_C@_04DGFIONEK@hook?$AA@ 2003fcf4     g_missile.obj
 0002:00004d00       __real@3fe4cccccccccccd    2003fd00     g_missile.obj
 0002:00004d08       __real@408f400000000000    2003fd08     g_mover.obj
 0002:00004d10       ??_C@_0CE@HFNOCNBN@Reached_BinaryMover?3?5bad?5moverSt@ 2003fd10     g_mover.obj
 0002:00004d34       __real@3e800000            2003fd34     g_mover.obj
 0002:00004d38       ??_C@_05PEENBMOG@color?$AA@ 2003fd38     g_mover.obj
 0002:00004d40       ??_C@_05PGFNHLMG@1?51?51?$AA@ 2003fd40     g_mover.obj
 0002:00004d48       ??_C@_05OEPGNJB@light?$AA@ 2003fd48     g_mover.obj
 0002:00004d50       ??_C@_05GPLCCBII@noise?$AA@ 2003fd50     g_mover.obj
 0002:00004d58       ??_C@_0N@FKJMDFJC@door_trigger?$AA@ 2003fd58     g_mover.obj
 0002:00004d68       ??_C@_03EMOFKE@dmg?$AA@    2003fd68     g_mover.obj
 0002:00004d6c       ??_C@_0BP@MPMCKOBA@sound?1movers?1doors?1dr1_end?4wav?$AA@ 2003fd6c     g_mover.obj
 0002:00004d8c       ??_C@_0CA@KGLPIIML@sound?1movers?1doors?1dr1_strt?4wav?$AA@ 2003fd8c     g_mover.obj
 0002:00004dac       __real@42040000            2003fdac     g_mover.obj
 0002:00004db0       ??_C@_0N@GNEHAGP@plat_trigger?$AA@ 2003fdb0     g_mover.obj
 0002:00004dc0       ??_C@_06LNLHEAAG@height?$AA@ 2003fdc0     g_mover.obj
 0002:00004dc8       ??_C@_05HJCMGBKF@speed?$AA@ 2003fdc8     g_mover.obj
 0002:00004dd0       ??_C@_0BP@FMIAEABD@sound?1movers?1plats?1pt1_end?4wav?$AA@ 2003fdd0     g_mover.obj
 0002:00004df0       ??_C@_0CA@DPCFJLJP@sound?1movers?1plats?1pt1_strt?4wav?$AA@ 2003fdf0     g_mover.obj
 0002:00004e10       ??_C@_0CA@HPFJMDOC@sound?1movers?1switches?1butn2?4wav?$AA@ 2003fe10     g_mover.obj
 0002:00004e30       ??_C@_0DB@KEBMPPOD@Train?5corner?5at?5?$CFs?5without?5a?5tar@ 2003fe30     g_mover.obj
 0002:00004e64       ??_C@_0CF@EGOCJBJB@Train?5corner?5at?5?$CFs?5without?5a?5tar@ 2003fe64     g_mover.obj
 0002:00004e8c       ??_C@_0M@ONCHNMHP@path_corner?$AA@ 2003fe8c     g_mover.obj
 0002:00004e98       ??_C@_0CJ@BMOHOFCP@func_train?5at?5?$CFs?5with?5an?5unfound@ 2003fe98     g_mover.obj
 0002:00004ec4       ??_C@_0CG@DHHNMBFP@path_corner?5with?5no?5targetname?5a@ 2003fec4     g_mover.obj
 0002:00004eec       ??_C@_0CD@BNKPEMCB@func_train?5without?5a?5target?5at?5?$CF@ 2003feec     g_mover.obj
 0002:00004f10       ??_C@_05CBPKLGJM@phase?$AA@ 2003ff10     g_mover.obj
 0002:00004f18       ??_C@_02MLODCJFF@32?$AA@   2003ff18     g_mover.obj
 0002:00004f20       __real@3fc45f306446f9b4    2003ff20     g_mover.obj
 0002:00004f28       ??_C@_0CC@FGLHJPEN@pushed_p?5?$DO?5?$CGpushed?$FLMAX_GENTITIES@ 2003ff28     g_mover.obj
 0002:00004f4c       ??_C@_09INHJFLOH@session?$CFi?$AA@ 2003ff4c     g_session.obj
 0002:00004f58       ??_C@_0BF@GKKABID@?$CFi?5?$CFi?5?$CFi?5?$CFi?5?$CFi?5?$CFi?5?$CFi?$AA@ 2003ff58     g_session.obj
 0002:00004f70       ??_C@_0CK@FAAHDCAM@Gametype?5changed?0?5clearing?5sessi@ 2003ff70     g_session.obj
 0002:00004f9c       ??_C@_07KMJDECGK@session?$AA@ 2003ff9c     g_session.obj
 0002:00004fa4       ??_C@_0P@IPNNKHAH@teamtournament?$AA@ 2003ffa4     g_spawn.obj
 0002:00004fb4       ??_C@_09KFJDBEJE@harvester?$AA@ 2003ffb4     g_spawn.obj
 0002:00004fc0       ??_C@_07BNFEBHAE@obelisk?$AA@ 2003ffc0     g_spawn.obj
 0002:00004fc8       ??_C@_07BEINKNPB@oneflag?$AA@ 2003ffc8     g_spawn.obj
 0002:00004fd0       ??_C@_03JHHHHEKD@ctf?$AA@  2003ffd0     g_spawn.obj
 0002:00004fd4       ??_C@_06EJFMBPJF@single?$AA@ 2003ffd4     g_spawn.obj
 0002:00004fdc       ??_C@_0L@NCEPCFLK@tournament?$AA@ 2003ffdc     g_spawn.obj
 0002:00004fe8       ??_C@_03PAEKGFEI@ffa?$AA@  2003ffe8     g_spawn.obj
 0002:00004fec       ??_C@_0BD@GGIPJOIB@team_CTF_bluespawn?$AA@ 2003ffec     g_spawn.obj
 0002:00005000       ??_C@_0BC@KIKIBEND@team_CTF_redspawn?$AA@ 20040000     g_spawn.obj
 0002:00005014       ??_C@_0BE@COKGGHPD@team_CTF_blueplayer?$AA@ 20040014     g_spawn.obj
 0002:00005028       ??_C@_0BD@KLANHAKB@team_CTF_redplayer?$AA@ 20040028     g_spawn.obj
 0002:0000503c       ??_C@_0P@KKMFIJKM@shooter_plasma?$AA@ 2004003c     g_spawn.obj
 0002:0000504c       ??_C@_0BA@MJCDAGHP@shooter_grenade?$AA@ 2004004c     g_spawn.obj
 0002:0000505c       ??_C@_0P@GNAFHBJH@shooter_rocket?$AA@ 2004005c     g_spawn.obj
 0002:0000506c       ??_C@_0BD@OJADMBDB@misc_portal_camera?$AA@ 2004006c     g_spawn.obj
 0002:00005080       ??_C@_0BE@FCJPPDGO@misc_portal_surface?$AA@ 20040080     g_spawn.obj
 0002:00005094       ??_C@_0L@PMAFMKKM@misc_model?$AA@ 20040094     g_spawn.obj
 0002:000050a0       ??_C@_0BF@OMPOACGH@misc_teleporter_dest?$AA@ 200400a0     g_spawn.obj
 0002:000050b8       ??_C@_0M@NLNGBECJ@target_push?$AA@ 200400b8     g_spawn.obj
 0002:000050c4       ??_C@_0BA@BFKBOHOP@target_location?$AA@ 200400c4     g_spawn.obj
 0002:000050d4       ??_C@_0BA@NENIEICJ@target_position?$AA@ 200400d4     g_spawn.obj
 0002:000050e4       ??_C@_0M@KFDPHLNE@target_kill?$AA@ 200400e4     g_spawn.obj
 0002:000050f0       ??_C@_0BC@GJLLMIEM@target_teleporter?$AA@ 200400f0     g_spawn.obj
 0002:00005104       ??_C@_0N@DIKJAPJH@target_score?$AA@ 20040104     g_spawn.obj
 0002:00005114       ??_C@_0N@LGMMDFPN@target_laser?$AA@ 20040114     g_spawn.obj
 0002:00005124       ??_C@_0N@IADDOFND@target_print?$AA@ 20040124     g_spawn.obj
 0002:00005134       ??_C@_0P@MNJIBEAO@target_speaker?$AA@ 20040134     g_spawn.obj
 0002:00005144       ??_C@_0BH@FJADHEOA@target_remove_powerups?$AA@ 20040144     g_spawn.obj
 0002:0000515c       ??_C@_0M@KALMALDK@target_give?$AA@ 2004015c     g_spawn.obj
 0002:00005168       ??_C@_0N@JFLGFCMM@trigger_hurt?$AA@ 20040168     g_spawn.obj
 0002:00005178       ??_C@_0BB@COMMHECA@trigger_teleport?$AA@ 20040178     g_spawn.obj
 0002:0000518c       ??_C@_0N@CCJDLJOF@trigger_push?$AA@ 2004018c     g_spawn.obj
 0002:0000519c       ??_C@_0P@KDHOHKJL@trigger_always?$AA@ 2004019c     g_spawn.obj
 0002:000051ac       ??_C@_0L@KLICIANB@func_group?$AA@ 200401ac     g_spawn.obj
 0002:000051b8       ??_C@_0L@PGCOCBM@func_train?$AA@ 200401b8     g_spawn.obj
 0002:000051c4       ??_C@_0O@FPCFJAHB@func_pendulum?$AA@ 200401c4     g_spawn.obj
 0002:000051d4       ??_C@_0N@BAMIHEIF@func_bobbing?$AA@ 200401d4     g_spawn.obj
 0002:000051e4       ??_C@_0O@JDFCILJF@func_rotating?$AA@ 200401e4     g_spawn.obj
 0002:000051f4       ??_C@_0M@OOBMECJN@func_static?$AA@ 200401f4     g_spawn.obj
 0002:00005200       ??_C@_09HCDLIOGG@func_plat?$AA@ 20040200     g_spawn.obj
 0002:0000520c       ??_C@_09BLMHBGJ@info_camp?$AA@ 2004020c     g_spawn.obj
 0002:00005218       ??_C@_0N@FHKCBFMD@info_notnull?$AA@ 20040218     g_spawn.obj
 0002:00005228       ??_C@_09MBOCECHK@info_null?$AA@ 20040228     g_spawn.obj
 0002:00005234       ??_C@_0BC@IHPKIKNE@info_player_start?$AA@ 20040234     g_spawn.obj
 0002:00005248       ??_C@_0BE@OHABMMFD@targetShaderNewName?$AA@ 20040248     g_spawn.obj
 0002:0000525c       ??_C@_0BB@FKLCNMKK@targetShaderName?$AA@ 2004025c     g_spawn.obj
 0002:00005270       ??_C@_06GNEAMJOC@angles?$AA@ 20040270     g_spawn.obj
 0002:00005278       ??_C@_05IOMEMJEC@count?$AA@ 20040278     g_spawn.obj
 0002:00005280       ??_C@_07ONPBMBOP@message?$AA@ 20040280     g_spawn.obj
 0002:00005288       ??_C@_06LNKHAAKC@model2?$AA@ 20040288     g_spawn.obj
 0002:00005290       ??_C@_0CC@JNJOINHG@?$CFs?5doesn?8t?5have?5a?5spawn?5function@ 20040290     g_spawn.obj
 0002:000052b4       ??_C@_0BN@EMEGOFNC@G_CallSpawn?3?5NULL?5classname?6?$AA@ 200402b4     g_spawn.obj
 0002:000052d4       ??_C@_08NJPDEKHO@gametype?$AA@ 200402d4     g_spawn.obj
 0002:000052e0       ??_C@_06MFKCCKGP@notq3a?$AA@ 200402e0     g_spawn.obj
 0002:000052e8       ??_C@_07DDCDJNBH@notfree?$AA@ 200402e8     g_spawn.obj
 0002:000052f0       ??_C@_07CLBNBEAH@notteam?$AA@ 200402f0     g_spawn.obj
 0002:000052f8       ??_C@_09FDFEENEB@notsingle?$AA@ 200402f8     g_spawn.obj
 0002:00005304       ??_C@_0CE@JHGDANIP@G_AddSpawnVarToken?3?5MAX_SPAWN_CH@ 20040304     g_spawn.obj
 0002:00005328       ??_C@_0CB@JFPBODJK@G_ParseSpawnVars?3?5MAX_SPAWN_VARS@ 20040328     g_spawn.obj
 0002:0000534c       ??_C@_0CN@NMMGIHBC@G_ParseSpawnVars?3?5closing?5brace?5@ 2004034c     g_spawn.obj
 0002:0000537c       ??_C@_0CM@DONEEOIH@G_ParseSpawnVars?3?5EOF?5without?5cl@ 2004037c     g_spawn.obj
 0002:000053a8       ??_C@_0CM@CKLLJIGA@G_ParseSpawnVars?3?5found?5?$CFs?5when?5@ 200403a8     g_spawn.obj
 0002:000053d4       ??_C@_0P@INMNNPOJ@g_enableBreath?$AA@ 200403d4     g_spawn.obj
 0002:000053e4       ??_C@_0N@PNMKKPBO@enableBreath?$AA@ 200403e4     g_spawn.obj
 0002:000053f4       ??_C@_0N@CMGOADK@g_enableDust?$AA@ 200403f4     g_spawn.obj
 0002:00005404       ??_C@_0L@FLFKAOCP@enableDust?$AA@ 20040404     g_spawn.obj
 0002:00005410       ??_C@_07GFBFDLBM@gravity?$AA@ 20040410     g_spawn.obj
 0002:00005418       ??_C@_05LLDJOKNO@music?$AA@ 20040418     g_spawn.obj
 0002:00005420       ??_C@_08GHNGFAJB@baseg1?91?$AA@ 20040420     g_spawn.obj
 0002:0000542c       ??_C@_0DD@EBBCPGHA@SP_worldspawn?3?5The?5first?5entity?5@ 2004042c     g_spawn.obj
 0002:00005460       ??_C@_0L@BIFLFHPF@worldspawn?$AA@ 20040460     g_spawn.obj
 0002:0000546c       ??_C@_0BL@HLOLFMOK@SpawnEntities?3?5no?5entities?$AA@ 2004046c     g_spawn.obj
 0002:00005488       ??_C@_0BI@DIECJMKD@Bad?5filter?5address?3?5?$CFs?6?$AA@ 20040488     g_svcmds.obj
 0002:000054a0       ??_C@_0CO@DILFDDOI@g_banIPs?5overflowed?5at?5MAX_CVAR_@ 200404a0     g_svcmds.obj
 0002:000054d0       ??_C@_01LFCBOECM@?4?$AA@   200404d0     g_svcmds.obj
 0002:000054d4       ??_C@_01NBENCBCI@?$CK?$AA@ 200404d4     g_svcmds.obj
 0002:000054d8       ??_C@_0BI@LMFPAHLD@IP?5filter?5list?5is?5full?6?$AA@ 200404d8     g_svcmds.obj
 0002:000054f0       ??_C@_0BJ@LEBLJMPE@Usage?3?5?5addip?5?$DMip?9mask?$DO?6?$AA@ 200404f0     g_svcmds.obj
 0002:0000550c       ??_C@_09HBKBHJKE@Removed?4?6?$AA@ 2004050c     g_svcmds.obj
 0002:00005518       ??_C@_0BB@DFCHPNBP@Didn?8t?5find?5?$CFs?4?6?$AA@ 20040518     g_svcmds.obj
 0002:0000552c       ??_C@_0BP@OJMGJOKB@Usage?3?5?5sv?5removeip?5?$DMip?9mask?$DO?6?$AA@ 2004052c     g_svcmds.obj
 0002:0000554c       ??_C@_01EEMJAFIK@?6?$AA@   2004054c     g_svcmds.obj
 0002:00005550       ??_C@_0BF@HIBFLMFA@?$CF3i?5?5?5?5?5?5?5?5?5?5?5?5?5?5?5?5?5?$AA@ 20040550     g_svcmds.obj
 0002:00005568       ??_C@_0BF@JEKJFFDI@ET_GRAPPLE?5?5?5?5?5?5?5?5?5?5?$AA@ 20040568     g_svcmds.obj
 0002:00005580       ??_C@_0BF@FONFEMNK@ET_INVISIBLE?5?5?5?5?5?5?5?5?$AA@ 20040580     g_svcmds.obj
 0002:00005598       ??_C@_0BF@KNGJOHIC@ET_TELEPORT_TRIGGER?5?$AA@ 20040598     g_svcmds.obj
 0002:000055b0       ??_C@_0BF@JCJGMGAM@ET_PUSH_TRIGGER?5?5?5?5?5?$AA@ 200405b0     g_svcmds.obj
 0002:000055c8       ??_C@_0BF@JKKJEPNL@ET_SPEAKER?5?5?5?5?5?5?5?5?5?5?$AA@ 200405c8     g_svcmds.obj
 0002:000055e0       ??_C@_0BF@FABEBACG@ET_PORTAL?5?5?5?5?5?5?5?5?5?5?5?$AA@ 200405e0     g_svcmds.obj
 0002:000055f8       ??_C@_0BF@DBCLPHFC@ET_BEAM?5?5?5?5?5?5?5?5?5?5?5?5?5?$AA@ 200405f8     g_svcmds.obj
 0002:00005610       ??_C@_0BF@CKCOPBOH@ET_MOVER?5?5?5?5?5?5?5?5?5?5?5?5?$AA@ 20040610     g_svcmds.obj
 0002:00005628       ??_C@_0BF@JMOJKPHI@ET_MISSILE?5?5?5?5?5?5?5?5?5?5?$AA@ 20040628     g_svcmds.obj
 0002:00005640       ??_C@_0BF@IIDKJKIF@ET_ITEM?5?5?5?5?5?5?5?5?5?5?5?5?5?$AA@ 20040640     g_svcmds.obj
 0002:00005658       ??_C@_0BF@GHCCJGLD@ET_PLAYER?5?5?5?5?5?5?5?5?5?5?5?$AA@ 20040658     g_svcmds.obj
 0002:00005670       ??_C@_0BF@GBIOGILC@ET_GENERAL?5?5?5?5?5?5?5?5?5?5?$AA@ 20040670     g_svcmds.obj
 0002:00005688       ??_C@_04LAMNNBAP@?$CF3i?3?$AA@ 20040688     g_svcmds.obj
 0002:00005690       ??_C@_0BO@DPIFHGAP@User?5?$CFs?5is?5not?5on?5the?5server?6?$AA@ 20040690     g_svcmds.obj
 0002:000056b0       ??_C@_0BF@BEBENGBA@Bad?5client?5slot?3?5?$CFi?6?$AA@ 200406b0     g_svcmds.obj
 0002:000056c8       ??_C@_0BM@KMBENOOM@Client?5?$CFi?5is?5not?5connected?6?$AA@ 200406c8     g_svcmds.obj
 0002:000056e4       ??_C@_0BD@OKBENEII@print?5?$CCserver?3?5?$CFs?$CC?$AA@ 200406e4     g_svcmds.obj
 0002:000056f8       ??_C@_09DNOCIDID@g_banIPs?6?$AA@ 200406f8     g_svcmds.obj
 0002:00005704       ??_C@_06DDGIHMAP@listip?$AA@ 20040704     g_svcmds.obj
 0002:0000570c       ??_C@_08FODIKFHA@removeip?$AA@ 2004070c     g_svcmds.obj
 0002:00005718       ??_C@_05DNFKLKCD@addip?$AA@ 20040718     g_svcmds.obj
 0002:00005720       ??_C@_0N@EKGBLHCI@abort_podium?$AA@ 20040720     g_svcmds.obj
 0002:00005730       ??_C@_07OCFGLMLF@botlist?$AA@ 20040730     g_svcmds.obj
 0002:00005738       ??_C@_06CJHCPEHG@addbot?$AA@ 20040738     g_svcmds.obj
 0002:00005740       ??_C@_0M@OOGGMGEK@game_memory?$AA@ 20040740     g_svcmds.obj
 0002:0000574c       ??_C@_09NGKIAGHE@forceteam?$AA@ 2004074c     g_svcmds.obj
 0002:00005758       ??_C@_0L@CLDMIJOM@entitylist?$AA@ 20040758     g_svcmds.obj
 0002:00005764       ??_C@_05EKJCMADO@delay?$AA@ 20040764     g_target.obj
 0002:0000576c       ??_C@_07PCJFOBJC@cp?5?$CC?$CFs?$CC?$AA@ 2004076c     g_target.obj
 0002:00005774       ??_C@_06MKMJDPPC@?$CFs?4wav?$AA@ 20040774     g_target.obj
 0002:0000577c       ??_C@_04IBLEHOMF@?4wav?$AA@ 2004077c     g_target.obj
 0002:00005784       ??_C@_0CJ@MCNLAIAG@target_speaker?5without?5a?5noise?5k@ 20040784     g_target.obj
 0002:000057b0       ??_C@_07FGPCJFED@NOSOUND?$AA@ 200407b0     g_target.obj
 0002:000057b8       __real@45000000            200407b8     g_target.obj
 0002:000057bc       ??_C@_0BO@JBAPADMO@?$CFs?5at?5?$CFs?3?5?$CFs?5is?5a?5bad?5target?6?$AA@ 200407bc     g_target.obj
 0002:000057dc       ??_C@_0CG@NCOEMBAJ@Couldn?8t?5find?5teleporter?5destina@ 200407dc     g_target.obj
 0002:00005804       ??_C@_0BF@CCKDOAMJ@untargeted?5?$CFs?5at?5?$CFs?6?$AA@ 20040804     g_target.obj
 0002:0000581c       ??_C@_07CIFAGBMG@unknown?$AA@ 2004081c     g_target.obj
 0002:00005824       ??_C@_04HEDFJGEJ@FREE?$AA@ 20040824     g_team.obj
 0002:0000582c       ??_C@_09GNDCBOBP@SPECTATOR?$AA@ 2004082c     g_team.obj
 0002:00005838       ??_C@_04CNFFLDFF@BLUE?$AA@ 20040838     g_team.obj
 0002:00005840       ??_C@_03FNPLCCOA@RED?$AA@  20040840     g_team.obj
 0002:00005844       ??_C@_0BB@GAGKBLAF@PrintMsg?5overrun?$AA@ 20040844     g_team.obj
 0002:00005858       __real@45fa0000            20040858     g_team.obj
 0002:0000585c       ??_C@_0CB@KOPONFBB@?$CFs?$FO7?5fragged?5?$CFs?8s?5flag?5carrier?$CB?6@ 2004085c     g_team.obj
 0002:00005880       ??_C@_0BF@NFGOPKAE@team_CTF_neutralflag?$AA@ 20040880     g_team.obj
 0002:00005898       ??_C@_0CP@OBNDLAL@Warning?3?5?5NULL?5passed?5to?5Team_Re@ 20040898     g_team.obj
 0002:000058c8       ??_C@_0CN@EPFNCNCH@Warning?3?5?5NULL?5passed?5to?5Team_Ta@ 200408c8     g_team.obj
 0002:000058f8       ??_C@_0DA@ICMFPMGB@Warning?3?5?5NULL?5passed?5to?5Team_Ca@ 200408f8     g_team.obj
 0002:00005928       ??_C@_0BL@EJNDMGGL@The?5?$CFs?5flag?5has?5returned?$CB?6?$AA@ 20040928     g_team.obj
 0002:00005944       ??_C@_0BI@KNNACEDO@The?5flag?5has?5returned?$CB?6?$AA@ 20040944     g_team.obj
 0002:0000595c       ??_C@_0BM@NKAOENPK@?$CFs?$FO7?5captured?5the?5?$CFs?5flag?$CB?6?$AA@ 2004095c     g_team.obj
 0002:00005978       ??_C@_0BM@BDFECDMG@?$CFs?$FO7?5returned?5the?5?$CFs?5flag?$CB?6?$AA@ 20040978     g_team.obj
 0002:00005994       ??_C@_0BH@PJAKMCBO@?$CFs?$FO7?5got?5the?5?$CFs?5flag?$CB?6?$AA@ 20040994     g_team.obj
 0002:000059ac       ??_C@_0CG@PMIHGLOD@Don?8t?5know?5what?5team?5the?5flag?5is@ 200409ac     g_team.obj
 0002:000059d4       ??_C@_08BKJPOMKC@?$CFc?$CFc?$CFs?$FO7?$AA@ 200409d4     g_team.obj
 0002:000059e0       ??_C@_0BH@FEKNGHLG@sound?1misc?1windfly?4wav?$AA@ 200409e0     g_trigger.obj
 0002:000059f8       ??_C@_0BI@DGLBHPLI@sound?1world?1jumppad?4wav?$AA@ 200409f8     g_trigger.obj
 0002:00005a10       ??_C@_0CF@GJKCPHON@func_timer?5at?5?$CFs?5has?5random?5?$DO?$DN?5w@ 20040a10     g_trigger.obj
 0002:00005a38       ??_C@_0CF@LENMBBGI@trigger_multiple?5has?5random?5?$DO?$DN?5w@ 20040a38     g_trigger.obj
 0002:00005a60       ??_C@_03LOHCHBBO@0?45?$AA@ 20040a60     g_trigger.obj
 0002:00005a64       ??_C@_0BI@KPLPFMKN@sound?1world?1electro?4wav?$AA@ 20040a64     g_trigger.obj
 0002:00005a7c       ??_C@_0N@MLGFLFEI@?$CFs?$DN?$CFs?3?$CF5?42f?$EA?$AA@ 20040a7c     g_utils.obj
 0002:00005a8c       ??_C@_0CC@KBENIHEG@G_FindConfigstringIndex?3?5overflo@ 20040a8c     g_utils.obj
 0002:00005ab0       ??_C@_0CD@HHFHMIIH@G_PickTarget?3?5target?5?$CFs?5not?5foun@ 20040ab0     g_utils.obj
 0002:00005ad4       ??_C@_0CK@JOENGKNM@G_PickTarget?5called?5with?5NULL?5ta@ 20040ad4     g_utils.obj
 0002:00005b00       ??_C@_0CI@HMPHOHE@entity?5was?5removed?5while?5using?5t@ 20040b00     g_utils.obj
 0002:00005b28       ??_C@_0BO@JIDGNOMJ@WARNING?3?5Entity?5used?5itself?4?6?$AA@ 20040b28     g_utils.obj
 0002:00005b48       ??_C@_0L@OPPGOKFJ@?$CI?$CFi?5?$CFi?5?$CFi?$CJ?$AA@ 20040b48     g_utils.obj
 0002:00005b54       __real@43870000            20040b54     g_utils.obj
 0002:00005b58       __real@404ca5dc0d03cf25    20040b58     g_utils.obj
 0002:00005b60       ??_C@_07CBNPCFPB@noclass?$AA@ 20040b60     g_utils.obj
 0002:00005b68       ??_C@_0BK@OECJBIJE@G_Spawn?3?5no?5free?5entities?$AA@ 20040b68     g_utils.obj
 0002:00005b84       ??_C@_05FAPHKBON@freed?$AA@ 20040b84     g_utils.obj
 0002:00005b8c       ??_C@_0CM@MOJHPIKM@G_AddEvent?3?5zero?5event?5added?5for@ 20040b8c     g_utils.obj
 0002:00005bb8       ??_C@_0L@CPIFJPHE@tempEntity?$AA@ 20040bb8     g_utils.obj
 0002:00005bc4       __real@46000000            20040bc4     g_weapon.obj
 0002:00005bc8       __real@3e4ccccd            20040bc8     g_weapon.obj
 0002:00005bcc       __real@41600000            20040bcc     g_weapon.obj
 0002:00005bd0       __real@48000000            20040bd0     g_weapon.obj
 0002:00005bd4       __real@462f0000            20040bd4     g_weapon.obj
 0002:00005bd8       __real@44400000            20040bd8     g_weapon.obj
 0002:00005bdc       ??_C@_09HMKOPELG@infosight?$AA@ 20040bdc     g_weapon.obj
 0002:00005be8       ??_C@_0L@GILDDGOM@lasersight?$AA@ 20040be8     g_weapon.obj
 0002:00005bf4       __real@37800000            20040bf4     q_math.obj
 0002:00005bf8       __real@4066c16c16c16c17    20040bf8     q_math.obj
 0002:00005c00       ??_C@_0BJ@OLBOPICM@Q_strncpyz?3?5destsize?5?$DM?51?$AA@ 20040c00     q_shared.obj
 0002:00005c1c       ??_C@_0BF@BJHHBLMD@Q_strncpyz?3?5NULL?5src?$AA@ 20040c1c     q_shared.obj
 0002:00005c34       ??_C@_0BG@EKAPNPCH@Q_strncpyz?3?5NULL?5dest?$AA@ 20040c34     q_shared.obj
 0002:00005c4c       ??_C@_0BN@EFOOAHFL@Q_strcat?3?5already?5overflowed?$AA@ 20040c4c     q_shared.obj
 0002:00005c6c       ??_C@_0CD@GIPJKOOD@Com_sprintf?3?5overflow?5of?5?$CFi?5in?5?$CF@ 20040c6c     q_shared.obj
 0002:00005c90       ??_C@_0CC@GMEFDOKA@Com_sprintf?3?5overflowed?5bigbuffe@ 20040c90     q_shared.obj
 0002:00005cb4       ??_C@_0CG@FLHABLN@Info_ValueForKey?3?5oversize?5infos@ 20040cb4     q_shared.obj
 0002:00005cdc       ??_C@_0CE@HMPLGKDK@Info_RemoveKey?3?5oversize?5infostr@ 20040cdc     q_shared.obj
 0002:00005d00       ??_C@_0CD@JIDDAEOO@Can?8t?5use?5keys?5or?5values?5with?5a?5@ 20040d00     q_shared.obj
 0002:00005d24       ??_C@_0CL@JCFAGLFD@Can?8t?5use?5keys?5or?5values?5with?5a?5@ 20040d24     q_shared.obj
 0002:00005d50       ??_C@_0CD@MGFMEBLE@Can?8t?5use?5keys?5or?5values?5with?5a?5@ 20040d50     q_shared.obj
 0002:00005d74       ??_C@_0BN@CAOBGKLE@Info?5string?5length?5exceeded?6?$AA@ 20040d74     q_shared.obj
 0002:00005d94       ??_C@_06NELKLDPM@?2?$CFs?2?$CFs?$AA@ 20040d94     q_shared.obj
 0002:00005d9c       ??_C@_0CJ@CEEBDGNA@Info_SetValueForKey?3?5oversize?5in@ 20040d9c     q_shared.obj
 0002:00005e28       __real@0000000000000000    20040e28     LIBC:cvt.obj
 0002:00005e30       ??_C@_05KLBDPFGC@e?$CL000?$AA@ 20040e30     LIBC:cvt.obj
 0002:00005e38       __real@4150017ec0000000    20040e38     LIBC:testfdiv.obj
 0002:00005e40       __real@4147ffff80000000    20040e40     LIBC:testfdiv.obj
 0002:00005e48       ??_C@_0BK@NHEOCAHP@IsProcessorFeaturePresent?$AA@ 20040e48     LIBC:testfdiv.obj
 0002:00005e64       ??_C@_08CPNIBGIE@KERNEL32?$AA@ 20040e64     LIBC:testfdiv.obj
 0002:00005e70       ___newctype                20040e70     LIBC:ctype.obj
 0002:00006170       __wctype                   20041170     LIBC:ctype.obj
 0002:00006384       ??_C@_13NOLLCAOD@?$AA?$AA?$AA?$AA@ 20041384     LIBC:a_map.obj
 0002:000063b0       ___lookuptable             200413b0     LIBC:output.obj
 0002:0000640c       ??_C@_1O@CEDCILHN@?$AA?$CI?$AAn?$AAu?$AAl?$AAl?$AA?$CJ?$AA?$AA@ 2004140c     LIBC:output.obj
 0002:0000641c       ??_C@_06OJHGLDPL@?$CInull?$CJ?$AA@ 2004141c     LIBC:output.obj
 0002:00006490       ??_C@_04MLLJIGOK@atan?$AA@ 20041490     LIBC:libm_error.obj
 0002:00006498       ??_C@_04GFPJNGEK@ceil?$AA@ 20041498     LIBC:libm_error.obj
 0002:000064a0       ??_C@_05PBJFFIGL@floor?$AA@ 200414a0     LIBC:libm_error.obj
 0002:000064a8       ??_C@_04EHEDPDJG@modf?$AA@ 200414a8     LIBC:libm_error.obj
 0002:000064b0       ??_C@_04HPAFEEIN@exp2?$AA@ 200414b0     LIBC:libm_error.obj
 0002:000064b8       ??_C@_05EOHGHCHD@exp10?$AA@ 200414b8     LIBC:libm_error.obj
 0002:000064c0       ??_C@_04KGLCPMCP@log2?$AA@ 200414c0     LIBC:libm_error.obj
 0002:000064c8       ??_C@_03JGHBODFD@pow?$AA@  200414c8     LIBC:libm_error.obj
 0002:000064cc       ??_C@_05HGHHAHAP@log10?$AA@ 200414cc     LIBC:libm_error.obj
 0002:000064d4       ??_C@_03KHJOGHMM@exp?$AA@  200414d4     LIBC:libm_error.obj
 0002:000064e4       ??_C@_0N@FFJGBINN@AuthenticAMD?$AA@ 200414e4     LIBC:cpu_disp.obj
 0002:000064f4       ??_C@_0P@MIGLKIOC@CorExitProcess?$AA@ 200414f4     LIBC:crt0dat.obj
 0002:00006504       ??_C@_0M@MBOPBNBK@mscoree?4dll?$AA@ 20041504     LIBC:crt0dat.obj
 0002:0000652c       ??_C@_0P@GGKDKEEG@runtime?5error?5?$AA@ 2004152c     LIBC:crt0msg.obj
 0002:0000653c       ??_C@_02PCIJFNDE@?$AN?6?$AA@ 2004153c     LIBC:crt0msg.obj
 0002:00006540       ??_C@_0O@MJNIPGOH@TLOSS?5error?$AN?6?$AA@ 20041540     LIBC:crt0msg.obj
 0002:00006550       ??_C@_0N@BONNPDHF@SING?5error?$AN?6?$AA@ 20041550     LIBC:crt0msg.obj
 0002:00006560       ??_C@_0P@MBDAJNE@DOMAIN?5error?$AN?6?$AA@ 20041560     LIBC:crt0msg.obj
 0002:00006570       ??_C@_0KC@BDDGGBEJ@R6029?$AN?6?9?5This?5application?5cannot@ 20041570     LIBC:crt0msg.obj
 0002:00006614       ??_C@_0CF@KJDAIALP@R6028?$AN?6?9?5unable?5to?5initialize?5he@ 20041614     LIBC:crt0msg.obj
 0002:0000663c       ??_C@_0DF@GAKBPDFP@R6027?$AN?6?9?5not?5enough?5space?5for?5lo@ 2004163c     LIBC:crt0msg.obj
 0002:00006674       ??_C@_0DF@IBLNNAIG@R6026?$AN?6?9?5not?5enough?5space?5for?5st@ 20041674     LIBC:crt0msg.obj
 0002:000066ac       ??_C@_0CG@IOHKGFNJ@R6025?$AN?6?9?5pure?5virtual?5function?5c@ 200416ac     LIBC:crt0msg.obj
 0002:000066d4       ??_C@_0DF@JIJJFJDC@R6024?$AN?6?9?5not?5enough?5space?5for?5_o@ 200416d4     LIBC:crt0msg.obj
 0002:0000670c       ??_C@_0CJ@EGEJHFME@R6019?$AN?6?9?5unable?5to?5open?5console?5@ 2004170c     LIBC:crt0msg.obj
 0002:00006738       ??_C@_0CB@GNHNIELH@R6018?$AN?6?9?5unexpected?5heap?5error?$AN?6@ 20041738     LIBC:crt0msg.obj
 0002:0000675c       ??_C@_0CN@FOLDKNG@R6017?$AN?6?9?5unexpected?5multithread?5@ 2004175c     LIBC:crt0msg.obj
 0002:0000678c       ??_C@_0CM@FAHFJNHO@R6016?$AN?6?9?5not?5enough?5space?5for?5th@ 2004178c     LIBC:crt0msg.obj
 0002:000067b8       ??_C@_0JG@LBKMGKLD@?$AN?6This?5application?5has?5requested@ 200417b8     LIBC:crt0msg.obj
 0002:00006850       ??_C@_0CM@FLCNIPKK@R6009?$AN?6?9?5not?5enough?5space?5for?5en@ 20041850     LIBC:crt0msg.obj
 0002:0000687c       ??_C@_0CK@KMMJOAPP@R6008?$AN?6?9?5not?5enough?5space?5for?5ar@ 2004187c     LIBC:crt0msg.obj
 0002:000068a8       ??_C@_0CF@HOHMHDEK@R6002?$AN?6?9?5floating?5point?5not?5load@ 200418a8     LIBC:crt0msg.obj
 0002:000068d0       ??_C@_0CF@GOGNBNAK@Microsoft?5Visual?5C?$CL?$CL?5Runtime?5Lib@ 200418d0     LIBC:crt0msg.obj
 0002:000068f8       ??_C@_02PHMGELLB@?6?6?$AA@ 200418f8     LIBC:crt0msg.obj
 0002:000068fc       ??_C@_0BK@OFGJDLJJ@Runtime?5Error?$CB?6?6Program?3?5?$AA@ 200418fc     LIBC:crt0msg.obj
 0002:00006918       ??_C@_03KHICJKCI@?4?4?4?$AA@ 20041918     LIBC:crt0msg.obj
 0002:0000691c       ??_C@_0BH@DNAGHKFM@?$DMprogram?5name?5unknown?$DO?$AA@ 2004191c     LIBC:crt0msg.obj
 0002:00006964       ??_C@_0L@KDOEJCKC@_nextafter?$AA@ 20041964     LIBC:fpexcept.obj
 0002:00006970       ??_C@_05JGDBENOH@_logb?$AA@ 20041970     LIBC:fpexcept.obj
 0002:00006978       ??_C@_03ONILCKOB@_yn?$AA@  20041978     LIBC:fpexcept.obj
 0002:0000697c       ??_C@_03NAKIGLHK@_y1?$AA@  2004197c     LIBC:fpexcept.obj
 0002:00006980       ??_C@_03MJLDFKDL@_y0?$AA@  20041980     LIBC:fpexcept.obj
 0002:00006984       ??_C@_05GKKHEGJL@frexp?$AA@ 20041984     LIBC:fpexcept.obj
 0002:0000698c       ??_C@_04KEPJIHGP@fmod?$AA@ 2004198c     LIBC:fpexcept.obj
 0002:00006994       ??_C@_06MEIMCGCF@_hypot?$AA@ 20041994     LIBC:fpexcept.obj
 0002:0000699c       ??_C@_05KBKMEMPO@_cabs?$AA@ 2004199c     LIBC:fpexcept.obj
 0002:000069a4       ??_C@_05CEJMAHNP@ldexp?$AA@ 200419a4     LIBC:fpexcept.obj
 0002:000069ac       ??_C@_04ODHECPBC@fabs?$AA@ 200419ac     LIBC:fpexcept.obj
 0002:000069b4       ??_C@_03IIINPABG@tan?$AA@  200419b4     LIBC:fpexcept.obj
 0002:000069b8       ??_C@_03LALBNOCG@cos?$AA@  200419b8     LIBC:fpexcept.obj
 0002:000069bc       ??_C@_03BLEJJJBH@sin?$AA@  200419bc     LIBC:fpexcept.obj
 0002:000069c0       ??_C@_04EIAKFFMI@sqrt?$AA@ 200419c0     LIBC:fpexcept.obj
 0002:000069c8       ??_C@_05KNGEOGJB@atan2?$AA@ 200419c8     LIBC:fpexcept.obj
 0002:000069d0       ??_C@_04PDIFKINK@acos?$AA@ 200419d0     LIBC:fpexcept.obj
 0002:000069d8       ??_C@_04FIHNOPOL@asin?$AA@ 200419d8     LIBC:fpexcept.obj
 0002:000069e0       ??_C@_04FJHINJAO@tanh?$AA@ 200419e0     LIBC:fpexcept.obj
 0002:000069e8       ??_C@_04HPJJNFIM@cosh?$AA@ 200419e8     LIBC:fpexcept.obj
 0002:000069f0       ??_C@_04COOMCNPB@sinh?$AA@ 200419f0     LIBC:fpexcept.obj
 0002:000069f8       ??_C@_0BI@DFKBFLJE@GetProcessWindowStation?$AA@ 200419f8     LIBC:crtmbox.obj
 0002:00006a10       ??_C@_0BK@CIDNPOGP@GetUserObjectInformationA?$AA@ 20041a10     LIBC:crtmbox.obj
 0002:00006a2c       ??_C@_0BD@HHGDFDBJ@GetLastActivePopup?$AA@ 20041a2c     LIBC:crtmbox.obj
 0002:00006a40       ??_C@_0BA@HNOPNCHB@GetActiveWindow?$AA@ 20041a40     LIBC:crtmbox.obj
 0002:00006a50       ??_C@_0M@CHKKJDAI@MessageBoxA?$AA@ 20041a50     LIBC:crtmbox.obj
 0002:00006a5c       ??_C@_0L@GMPLCCII@user32?4dll?$AA@ 20041a5c     LIBC:crtmbox.obj
 0002:00006a68       ??_C@_06IMKFLFPG@1?$CDQNAN?$AA@ 20041a68     LIBC:x10fout.obj
 0002:00006a70       ??_C@_05DNEBIAHO@1?$CDINF?$AA@ 20041a70     LIBC:x10fout.obj
 0002:00006a78       ??_C@_05PHHOCPM@1?$CDIND?$AA@ 20041a78     LIBC:x10fout.obj
 0002:00006a80       ??_C@_06PGGFOGJG@1?$CDSNAN?$AA@ 20041a80     LIBC:x10fout.obj
 0002:00006a88       ??_C@_09KLGCKDOD@Program?3?5?$AA@ 20041a88     LIBC:secfail.obj
 0002:00006a98       ??_C@_0KA@JEHFIFGP@A?5buffer?5overrun?5has?5been?5detect@ 20041a98     LIBC:secfail.obj
 0002:00006b38       ??_C@_0BJ@MDEKIEOJ@Buffer?5overrun?5detected?$CB?$AA@ 20041b38     LIBC:secfail.obj
 0002:00006b58       ??_C@_0LB@BPLHHLFD@A?5security?5error?5of?5unknown?5caus@ 20041b58     LIBC:secfail.obj
 0002:00006c0c       ??_C@_0CD@GMKACBEK@Unknown?5security?5failure?5detecte@ 20041c0c     LIBC:secfail.obj
 0002:00006c40       __load_config_used         20041c40     LIBC:loadcfg.obj
 0002:00006c90       ___safe_se_handler_table   20041c90     <linker-defined>
 0002:00006c98       ___rtc_iaa                 20041c98     LIBC:initsect.obj
 0002:00006c9c       ___rtc_izz                 20041c9c     LIBC:initsect.obj
 0002:00006ca0       ___rtc_taa                 20041ca0     LIBC:initsect.obj
 0002:00006ca4       ___rtc_tzz                 20041ca4     LIBC:initsect.obj
 0002:00006ca8       __IMPORT_DESCRIPTOR_KERNEL32 20041ca8     kernel32:KERNEL32.dll
 0002:00006cbc       __NULL_IMPORT_DESCRIPTOR   20041cbc     kernel32:KERNEL32.dll
 0003:00000000       ___xc_a                    20043000     LIBC:crt0init.obj
 0003:00000008       ___xc_z                    20043008     LIBC:crt0init.obj
 0003:0000000c       ___xi_a                    2004300c     LIBC:crt0init.obj
 0003:00000020       ___xi_z                    20043020     LIBC:crt0init.obj
 0003:00000024       ___xp_a                    20043024     LIBC:crt0init.obj
 0003:0000002c       ___xp_z                    2004302c     LIBC:crt0init.obj
 0003:00000030       ___xt_a                    20043030     LIBC:crt0init.obj
 0003:00000034       ___xt_z                    20043034     LIBC:crt0init.obj
 0003:00000070       _voiceCommands             20043070     ai_vcmd.obj
 0003:000000e8       _bg_itemlist               200430e8     bg_misc.obj
 0003:0000086c       _bg_numItems               2004386c     bg_misc.obj
 0003:00000870       _eventnames                20043870     bg_misc.obj
 0003:000009a0       _pm_stopspeed              200439a0     bg_pmove.obj
 0003:000009a4       _pm_duckScale              200439a4     bg_pmove.obj
 0003:000009a8       _pm_swimScale              200439a8     bg_pmove.obj
 0003:000009ac       _pm_wadeScale              200439ac     bg_pmove.obj
 0003:000009b0       _pm_accelerate             200439b0     bg_pmove.obj
 0003:000009b4       _pm_airaccelerate          200439b4     bg_pmove.obj
 0003:000009b8       _pm_wateraccelerate        200439b8     bg_pmove.obj
 0003:000009bc       _pm_flyaccelerate          200439bc     bg_pmove.obj
 0003:000009c0       _pm_friction               200439c0     bg_pmove.obj
 0003:000009c4       _pm_waterfriction          200439c4     bg_pmove.obj
 0003:000009c8       _pm_flightfriction         200439c8     bg_pmove.obj
 0003:000009cc       _pm_spectatorfriction      200439cc     bg_pmove.obj
 0003:00000a98       _modNames                  20043a98     g_combat.obj
 0003:00001008       _fields                    20044008     g_spawn.obj
 0003:00001158       _spawns                    20044158     g_spawn.obj
 0003:00001340       _axisDefault               20044340     q_math.obj
 0003:00001364       _colorBlack                20044364     q_math.obj
 0003:00001374       _colorRed                  20044374     q_math.obj
 0003:00001384       _colorGreen                20044384     q_math.obj
 0003:00001394       _colorBlue                 20044394     q_math.obj
 0003:000013a4       _colorYellow               200443a4     q_math.obj
 0003:000013b4       _colorMagenta              200443b4     q_math.obj
 0003:000013c4       _colorCyan                 200443c4     q_math.obj
 0003:000013d4       _colorWhite                200443d4     q_math.obj
 0003:000013e4       _colorLtGrey               200443e4     q_math.obj
 0003:000013f4       _colorMdGrey               200443f4     q_math.obj
 0003:00001404       _colorDkGrey               20044404     q_math.obj
 0003:00001418       _g_color_table             20044418     q_math.obj
 0003:00001498       _bytedirs                  20044498     q_math.obj
 0003:00001c34       __fltused                  20044c34     LIBC:fpinit.obj
 0003:00001c38       __ldused                   20044c38     LIBC:fpinit.obj
 0003:00001c3c       __FPinit                   20044c3c     LIBC:fpinit.obj
 0003:00001c40       __FPmtinit                 20044c40     LIBC:fpinit.obj
 0003:00001c44       __FPmtterm                 20044c44     LIBC:fpinit.obj
 0003:00001c50       __aexit_rtn                20044c50     LIBC:dllcrt0.obj
 0003:00001c60       __cfltcvt_tab              20044c60     LIBC:cmiscdat.obj
 0003:00001c80       __pctype                   20044c80     LIBC:ctype.obj
 0003:00001c84       __pwctype                  20044c84     LIBC:ctype.obj
 0003:00001c88       ___mb_cur_max              20044c88     LIBC:nlsdata1.obj
 0003:00001c8c       ___decimal_point           20044c8c     LIBC:nlsdata1.obj
 0003:00001c90       ___decimal_point_length    20044c90     LIBC:nlsdata1.obj
 0003:00001c94       ___lc_clike                20044c94     LIBC:nlsdata2.obj
 0003:00001c98       ___nullstring              20044c98     LIBC:output.obj
 0003:00001c9c       ___wnullstring             20044c9c     LIBC:output.obj
 0003:00001ca0       __pmatherr                 20044ca0     LIBC:libm_error.obj
 0003:00001ca8       ___badioinfo               20044ca8     LIBC:ioinit.obj
 0003:00001cb0       __amblksiz                 20044cb0     LIBC:heapinit.obj
 0003:00001cb8       __XcptActTab               20044cb8     LIBC:winxfltr.obj
 0003:00001d30       __First_FPE_Indx           20044d30     LIBC:winxfltr.obj
 0003:00001d34       __Num_FPE                  20044d34     LIBC:winxfltr.obj
 0003:00001d38       __XcptActTabCount          20044d38     LIBC:winxfltr.obj
 0003:00001d3c       __fpecode                  20044d3c     LIBC:winxfltr.obj
 0003:00001f00       ___security_cookie         20044f00     LIBC:seccook.obj
 0003:00001f08       __iob                      20044f08     LIBC:_file.obj
 0003:00002190       __matherr_flag             20045190     LIBC:matherr.obj
 0003:00002288       __d_inf                    20045288     LIBC:util.obj
 0003:00002290       __d_ind                    20045290     LIBC:util.obj
 0003:00002298       __d_max                    20045298     LIBC:util.obj
 0003:000022a0       __d_min                    200452a0     LIBC:util.obj
 0003:000022a8       __d_mzero                  200452a8     LIBC:util.obj
 0003:000022d0       __NLG_Destination          200452d0     LIBC:exsup.obj
 0003:00002448       __pow10pos                 20045448     LIBC:constpow.obj
 0003:000025a8       __pow10neg                 200455a8     LIBC:constpow.obj
 0003:00002848       _c_pmove                   20045848     bg_pmove.obj
 0003:00047e58       _remapCount                2008ae58     g_utils.obj
 0003:00047ecc       _vec3_origin               2008aecc     q_math.obj
 0003:0005e0e8       ___fastflag                200a10e8     LIBC:fpinit.obj
 0003:0005e0ec       __adjust_fdiv              200a10ec     LIBC:fpinit.obj
 0003:0005e0f4       __aenvptr                  200a10f4     LIBC:dllcrt0.obj
 0003:0005e0f8       __wenvptr                  200a10f8     LIBC:dllcrt0.obj
 0003:0005e0fc       ___error_mode              200a10fc     LIBC:dllcrt0.obj
 0003:0005e100       ___app_type                200a1100     LIBC:dllcrt0.obj
 0003:0005e134       ___lc_handle               200a1134     LIBC:nlsdata2.obj
 0003:0005e14c       ___lc_codepage             200a114c     LIBC:nlsdata2.obj
 0003:0005e150       ___lc_collate_cp           200a1150     LIBC:nlsdata2.obj
 0003:0005e154       _errno                     200a1154     LIBC:crt0dat.obj
 0003:0005e158       __doserrno                 200a1158     LIBC:crt0dat.obj
 0003:0005e15c       __umaskval                 200a115c     LIBC:crt0dat.obj
 0003:0005e160       __osplatform               200a1160     LIBC:crt0dat.obj
 0003:0005e164       __osver                    200a1164     LIBC:crt0dat.obj
 0003:0005e168       __winver                   200a1168     LIBC:crt0dat.obj
 0003:0005e16c       __winmajor                 200a116c     LIBC:crt0dat.obj
 0003:0005e170       __winminor                 200a1170     LIBC:crt0dat.obj
 0003:0005e174       ___argc                    200a1174     LIBC:crt0dat.obj
 0003:0005e178       ___argv                    200a1178     LIBC:crt0dat.obj
 0003:0005e17c       ___wargv                   200a117c     LIBC:crt0dat.obj
 0003:0005e180       __environ                  200a1180     LIBC:crt0dat.obj
 0003:0005e184       ___initenv                 200a1184     LIBC:crt0dat.obj
 0003:0005e188       __wenviron                 200a1188     LIBC:crt0dat.obj
 0003:0005e18c       ___winitenv                200a118c     LIBC:crt0dat.obj
 0003:0005e190       __pgmptr                   200a1190     LIBC:crt0dat.obj
 0003:0005e194       __wpgmptr                  200a1194     LIBC:crt0dat.obj
 0003:0005e198       __exitflag                 200a1198     LIBC:crt0dat.obj
 0003:0005e19c       __C_Termination_Done       200a119c     LIBC:crt0dat.obj
 0003:0005e1a0       __C_Exit_Done              200a11a0     LIBC:crt0dat.obj
 0003:0005e2b4       __pxcptinfoptrs            200a12b4     LIBC:winxfltr.obj
 0003:0005e2b8       __adbgmsg                  200a12b8     LIBC:crt0msg.obj
 0003:0005e2f0       __cflush                   200a12f0     LIBC:_file.obj
 0003:0005e35c       ?_pnhHeap@@3P6AHI@ZA       200a135c     LIBC:handler.obj
 0003:0005e360       __newmode                  200a1360     LIBC:_newmode.obj
 0003:0005e380       _remappedShaders           200a1380     <common>
 0003:00062580       _teamgame                  200a5580     <common>
 0003:000625c0       _pushed                    200a55c0     <common>
 0003:0006a5c0       _pushed_p                  200ad5c0     <common>
 0003:0006a5e0       _g_password                200ad5e0     <common>
 0003:0006a700       _g_smoothClients           200ad700     <common>
 0003:0006a820       _g_friendlyFire            200ad820     <common>
 0003:0006a940       _g_podiumDist              200ad940     <common>
 0003:0006aa60       _g_gravity                 200ada60     <common>
 0003:0006ab80       _g_filterBan               200adb80     <common>
 0003:0006aca0       _g_entities                200adca0     <common>
 0003:00134ca0       _g_restarted               20177ca0     <common>
 0003:00134dc0       _g_quadfactor              20177dc0     <common>
 0003:00134ee0       _g_debugMove               20177ee0     <common>
 0003:00135000       _g_weaponTeamRespawn       20178000     <common>
 0003:00135120       _g_fraglimit               20178120     <common>
 0003:00135240       _g_dmflags                 20178240     <common>
 0003:00135360       _g_maxclients              20178360     <common>
 0003:00135480       _pmove_msec                20178480     <common>
 0003:001355a0       _g_synchronousClients      201785a0     <common>
 0003:001356c0       _g_knockback               201786c0     <common>
 0003:001357e0       _g_warmup                  201787e0     <common>
 0003:00135900       _g_weaponRespawn           20178900     <common>
 0003:00135a20       _g_allowVote               20178a20     <common>
 0003:00135b40       _g_debugAlloc              20178b40     <common>
 0003:00135c60       _g_dedicated               20178c60     <common>
 0003:00135d80       _g_rankings                20178d80     <common>
 0003:00135ea0       _g_timelimit               20178ea0     <common>
 0003:00135fc0       _g_needpass                20178fc0     <common>
 0003:001360e0       _g_blood                   201790e0     <common>
 0003:00136200       _g_listEntity              20179200     <common>
 0003:00136320       _g_inactivity              20179320     <common>
 0003:00136440       _g_cheats                  20179440     <common>
 0003:00136560       _g_maxGameClients          20179560     <common>
 0003:00136680       _g_speed                   20179680     <common>
 0003:001367a0       _g_log                     201797a0     <common>
 0003:001368c0       _g_teamForceBalance        201798c0     <common>
 0003:001369e0       _g_banIPs                  201799e0     <common>
 0003:00136b00       _g_gametype                20179b00     <common>
 0003:00136c20       _g_capturelimit            20179c20     <common>
 0003:00136d40       _pmove_fixed               20179d40     <common>
 0003:00136e60       _g_doWarmup                20179e60     <common>
 0003:00136f80       _g_logSync                 20179f80     <common>
 0003:001370a0       _g_teamAutoJoin            2017a0a0     <common>
 0003:001371c0       _g_podiumDrop              2017a1c0     <common>
 0003:001372e0       _g_motd                    2017a2e0     <common>
 0003:00137400       _g_debugDamage             2017a400     <common>
 0003:00137520       _g_clients                 2017a520     <common>
 0003:00143920       _g_forcerespawn            20186920     <common>
 0003:00143a40       _level                     20186a40     <common>
 0003:00145e40       _itemRegistered            20188e40     <common>
 0003:00146240       _bot_minplayers            20189240     <common>
 0003:00146350       _g_numArenas               20189350     <common>
 0003:00146354       _podium1                   20189354     <common>
 0003:00146358       _podium3                   20189358     <common>
 0003:0014635c       _podium2                   2018935c     <common>
 0003:00146360       _pml                       20189360     <common>
 0003:001463ec       _pm                        201893ec     <common>
 0003:00146400       _ctftaskpreferences        20189400     <common>
 0003:00146e00       _bot_interbreedcycle       20189e00     <common>
 0003:00146f20       _bot_saveroutingcache      20189f20     <common>
 0003:00147040       _bot_interbreedbots        2018a040     <common>
 0003:00147160       _bot_memorydump            2018a160     <common>
 0003:00147270       _bot_interbreed            2018a270     <common>
 0003:00147274       _floattime                 2018a274     <common>
 0003:00147280       _botstates                 2018a280     <common>
 0003:00147380       _bot_interbreedchar        2018a380     <common>
 0003:001474a0       _bot_developer             2018a4a0     <common>
 0003:001475c0       _bot_report                2018a5c0     <common>
 0003:001476e0       _bot_interbreedwrite       2018a6e0     <common>
 0003:00147800       _bot_testsolid             2018a800     <common>
 0003:00147910       _regularupdate_time        2018a910     <common>
 0003:00147914       _numbots                   2018a914     <common>
 0003:00147920       _bot_testclusters          2018a920     <common>
 0003:00147a30       _bot_interbreedmatchcount  2018aa30     <common>
 0003:00147a40       _bot_pause                 2018aa40     <common>
 0003:00147b60       _bot_thinktime             2018ab60     <common>
 0003:00147c80       _blue_altroutegoals        2018ac80     <common>
 0003:00147f80       _bot_nochat                2018af80     <common>
 0003:001480a0       _bot_challenge             2018b0a0     <common>
 0003:001481c0       _bot_rocketjump            2018b1c0     <common>
 0003:001482e0       _ctf_redflag               2018b2e0     <common>
 0003:00148318       _botai_freewaypoints       2018b318     <common>
 0003:00148320       _bot_testrchat             2018b320     <common>
 0003:00148440       _bot_grapple               2018b440     <common>
 0003:00148550       _altroutegoals_setup       2018b550     <common>
 0003:00148560       _lastteleport_origin       2018b560     <common>
 0003:0014856c       _lastteleport_time         2018b56c     <common>
 0003:00148570       _blue_numaltroutegoals     2018b570     <common>
 0003:00148580       _bot_predictobstacles      2018b580     <common>
 0003:00148690       _maxclients                2018b690     <common>
 0003:001486a0       _g_spSkill                 2018b6a0     <common>
 0003:001487c0       _red_altroutegoals         2018b7c0     <common>
 0003:00148ac0       _bot_fastchat              2018bac0     <common>
 0003:00148be0       _ctf_blueflag              2018bbe0     <common>
 0003:00148c18       _max_bspmodelindex         2018bc18     <common>
 0003:00148c1c       _red_numaltroutegoals      2018bc1c     <common>
 0003:00148c20       _gametype                  2018bc20     <common>
 0003:00148c40       _botai_waypoints           2018bc40     <common>
 0003:0014be40       _numnodeswitches           2018ee40     <common>
 0003:0014be60       _nodeswitch                2018ee60     <common>
 0003:0014db20       _notleader                 20190b20     <common>
 0003:0014dc20       ___sbh_pHeaderDefer        20190c20     <common>
 0003:0014dc24       ___sbh_cntHeaderList       20190c24     <common>
 0003:0014dc28       ___sbh_pHeaderList         20190c28     <common>
 0003:0014dc2c       ___sbh_threshold           20190c2c     <common>
 0003:0014dc30       ___sbh_pHeaderScan         20190c30     <common>
 0003:0014dc34       ___sbh_sizeHeaderList      20190c34     <common>
 0003:0014dc38       ___sbh_indGroupDefer       20190c38     <common>
 0003:0014dc3c       ___piob                    20190c3c     <common>
 0003:0014dc40       __bufin                    20190c40     <common>
 0003:0014ec40       __nstream                  20191c40     <common>
 0003:0014ec44       ___mblcid                  20191c44     <common>
 0003:0014ec48       ___ismbcodepage            20191c48     <common>
 0003:0014ec60       __mbctype                  20191c60     <common>
 0003:0014ed64       ___mbcodepage              20191d64     <common>
 0003:0014ed70       ___mbulinfo                20191d70     <common>
 0003:0014ed80       __mbcasemap                20191d80     <common>
 0003:0014ee80       __crtheap                  20191e80     <common>
 0003:0014ee84       ___active_heap             20191e84     <common>
 0003:0014ee88       __nhandle                  20191e88     <common>
 0003:0014eea0       ___pioinfo                 20191ea0     <common>
 0003:0014efa0       ___env_initialized         20191fa0     <common>
 0003:0014efa4       ___onexitend               20191fa4     <common>
 0003:0014efa8       ___onexitbegin             20191fa8     <common>
 0003:0014efac       ___mbctype_initialized     20191fac     <common>
 0003:0014efb0       ___use_sse2_mathfcns       20191fb0     <common>
 0003:0014efb4       ___sse2_available          20191fb4     <common>
 0003:0014efb8       __acmdln                   20191fb8     <common>
 0003:0014efbc       __pRawDllMain              20191fbc     <common>

 entry point at        0001:0003199e

 Static symbols

 0001:00004b80       _VectorCompare             20005b80 f   ai_dmnet.obj
 0001:00004cb0       _VectorLengthSquared       20005cb0 f   ai_dmnet.obj
 0001:00004cb0       _VectorLengthSquared       20005cb0 f   ai_dmnet.obj
 0001:00015e90       _PM_StartTorsoAnim         20016e90 f   bg_pmove.obj
 0001:00015eb0       _PM_ContinueLegsAnim       20016eb0 f   bg_pmove.obj
 0001:00015ef0       _PM_ForceLegsAnim          20016ef0 f   bg_pmove.obj
 0001:00015f90       _PM_Friction               20016f90 f   bg_pmove.obj
 0001:000160c0       _PM_Accelerate             200170c0 f   bg_pmove.obj
 0001:00016140       _PM_CmdScale               20017140 f   bg_pmove.obj
 0001:000161d0       _PM_SetMovementDir         200171d0 f   bg_pmove.obj
 0001:000162a0       _PM_CheckJump              200172a0 f   bg_pmove.obj
 0001:00016360       _PM_CheckWaterJump         20017360 f   bg_pmove.obj
 0001:000164c0       _PM_WaterJumpMove          200174c0 f   bg_pmove.obj
 0001:00016510       _PM_WaterMove              20017510 f   bg_pmove.obj
 0001:00016730       _PM_FlyMove                20017730 f   bg_pmove.obj
 0001:00016840       _PM_AirMove                20017840 f   bg_pmove.obj
 0001:000169c0       _PM_GrappleMove            200179c0 f   bg_pmove.obj
 0001:00016af0       _PM_WalkMove               20017af0 f   bg_pmove.obj
 0001:00016e80       _PM_DeadMove               20017e80 f   bg_pmove.obj
 0001:00016f40       _PM_NoclipMove             20017f40 f   bg_pmove.obj
 0001:00017140       _PM_FootstepForSurface     20018140 f   bg_pmove.obj
 0001:00017160       _PM_CrashLand              20018160 f   bg_pmove.obj
 0001:00017360       _PM_CorrectAllSolid        20018360 f   bg_pmove.obj
 0001:00017520       _PM_GroundTraceMissed      20018520 f   bg_pmove.obj
 0001:00017630       _PM_GroundTrace            20018630 f   bg_pmove.obj
 0001:000178a0       _PM_SetWaterLevel          200188a0 f   bg_pmove.obj
 0001:000179c0       _PM_CheckDuck              200189c0 f   bg_pmove.obj
 0001:00017be0       _PM_Footsteps              20018be0 f   bg_pmove.obj
 0001:00017df0       _PM_WaterEvents            20018df0 f   bg_pmove.obj
 0001:00017e90       _PM_BeginWeaponChange      20018e90 f   bg_pmove.obj
 0001:00017f00       _PM_FinishWeaponChange     20018f00 f   bg_pmove.obj
 0001:00017f70       _PM_TorsoAnimation         20018f70 f   bg_pmove.obj
 0001:00017ff0       _PM_Weapon                 20018ff0 f   bg_pmove.obj
 0001:00018290       _PM_Animate                20019290 f   bg_pmove.obj
 0001:000182e0       _PM_DropTimers             200192e0 f   bg_pmove.obj
 0001:0001a7e0       _SpawnModelOnVictoryPad    2001b7e0 f   g_arenas.obj
 0001:0001aaa0       _CelebrateStop             2001baa0 f   g_arenas.obj
 0001:0001aad0       _CelebrateStart            2001bad0 f   g_arenas.obj
 0001:0001ab20       _PodiumPlacementThink      2001bb20 f   g_arenas.obj
 0001:0001af50       _SpawnPodium               2001bf50 f   g_arenas.obj
 0001:0001b3d0       _G_LoadArenasFromFile      2001c3d0 f   g_bot.obj
 0001:0001b4a0       _G_LoadArenas              2001c4a0 f   g_bot.obj
 0001:0001b640       _PlayerIntroSound          2001c640 f   g_bot.obj
 0001:0001bcc0       _AddBotToSpawnQueue        2001ccc0 f   g_bot.obj
 0001:0001bef0       _G_SpawnBots               2001cef0 f   g_bot.obj
 0001:0001c030       _G_LoadBotsFromFile        2001d030 f   g_bot.obj
 0001:0001c100       _G_LoadBots                2001d100 f   g_bot.obj
 0001:0001c3f0       _G_AddBot                  2001d3f0 f   g_bot.obj
 0001:0001d240       _ClientCleanName           2001e240 f   g_client.obj
 0001:0001f4b0       _G_SayTo                   200204b0 f   g_cmds.obj
 0001:0001f7d0       _Cmd_Tell_f                200207d0 f   g_cmds.obj
 0001:0001f8a0       _G_VoiceTo                 200208a0 f   g_cmds.obj
 0001:0001f9f0       _Cmd_VoiceTell_f           200209f0 f   g_cmds.obj
 0001:0001fac0       _Cmd_VoiceTaunt_f          20020ac0 f   g_cmds.obj
 0001:000257e0       _InitShooter_Finish        200267e0 f   g_misc.obj
 0001:00026fb0       _Touch_DoorTriggerSpectator 20027fb0 f   g_mover.obj
 0001:00029750       _StringToFilter            2002a750 f   g_svcmds.obj
 0001:00029800       _UpdateIPBans              2002a800 f   g_svcmds.obj
 0001:000299e0       _AddIP                     2002a9e0 f   g_svcmds.obj
 0001:0002bcb0       _target_location_linkup    2002ccb0 f   g_target.obj
 0001:0002bdc0       _VectorLength              2002cdc0 f   g_team.obj
 0001:0002bdc0       _VectorLength              2002cdc0 f   g_team.obj
 0001:00031290       _$$$00001                  20032290 f   LIBC:strchr.obj
 0001:000315a0       _shortsort                 200325a0 f   LIBC:qsort.obj
 0001:00031c7f       __shift                    20032c7f f   LIBC:cvt.obj
 0001:00032189       __hextodec                 20033189 f   LIBC:input.obj
 0001:000321bb       __inc                      200331bb f   LIBC:input.obj
 0001:0003350a       _write_char                2003450a f   LIBC:output.obj
 0001:0003353d       _write_multi_char          2003453d f   LIBC:output.obj
 0001:00033561       _write_string              20034561 f   LIBC:output.obj
 0001:0003401e       _has_osfxsr_set            2003501e f   LIBC:cpu_disp.obj
 0001:0003428e       _doexit                    2003528e f   LIBC:crt0dat.obj
 0001:00034604       _parse_cmdline             20035604 f   LIBC:stdargv.obj
 0001:00034da9       $$$00003                   20035da9 f   LIBC:exsup3.obj
 0001:00035113       _CPtoLCID                  20036113 f   LIBC:mbctype.obj
 0001:00035142       _setSBCS                   20036142 f   LIBC:mbctype.obj
 0001:0003516b       _setSBUpLow                2003616b f   LIBC:mbctype.obj
 0001:00035ba9       __abstract_cw              20036ba9 f   LIBC:ieee87.obj
 0001:00035c3b       __hw_cw                    20036c3b f   LIBC:ieee87.obj
 0001:00036198       _report_failure            20037198 f   LIBC:secchk.obj
 0001:00038480       $$$00001                   20039480 f   LIBC:exsup.obj
 0001:000384a0       __unwind_handler           200394a0 f   LIBC:exsup.obj
 0001:000384a0       $$$00003                   200394a0 f   LIBC:exsup.obj
 0001:000384c2       $$$00005                   200394c2 f   LIBC:exsup.obj
 0001:0003852a       $$$00007                   2003952a f   LIBC:exsup.obj
 0001:0003856e       $$$00011                   2003956e f   LIBC:exsup.obj
 0001:00039664       _flsall                    2003a664 f   LIBC:fflush.obj
